
obj/user/testshell:     file format elf32-i386


Disassembly of section .text:

00800020 <_start>:
// starts us running when we are initially loaded into a new environment.
.text
.globl _start
_start:
	// See if we were started with arguments on the stack
	cmpl $USTACKTOP, %esp
  800020:	81 fc 00 e0 ff ee    	cmp    $0xeeffe000,%esp
	jne args_exist
  800026:	75 04                	jne    80002c <args_exist>

	// If not, push dummy argc/argv arguments.
	// This happens when we are loaded by the kernel,
	// because the kernel does not know about passing arguments.
	pushl $0
  800028:	6a 00                	push   $0x0
	pushl $0
  80002a:	6a 00                	push   $0x0

0080002c <args_exist>:

args_exist:
	call libmain
  80002c:	e8 5b 05 00 00       	call   80058c <libmain>
1:	jmp 1b
  800031:	eb fe                	jmp    800031 <args_exist+0x5>
	...

00800034 <_Z5wrongiii>:
	breakpoint();
}

void
wrong(int rfd, int kfd, int off)
{
  800034:	55                   	push   %ebp
  800035:	89 e5                	mov    %esp,%ebp
  800037:	57                   	push   %edi
  800038:	56                   	push   %esi
  800039:	53                   	push   %ebx
  80003a:	81 ec 8c 00 00 00    	sub    $0x8c,%esp
  800040:	8b 7d 08             	mov    0x8(%ebp),%edi
  800043:	8b 75 0c             	mov    0xc(%ebp),%esi
  800046:	8b 5d 10             	mov    0x10(%ebp),%ebx
	char buf[100];
	int n;

	seek(rfd, off);
  800049:	89 5c 24 04          	mov    %ebx,0x4(%esp)
  80004d:	89 3c 24             	mov    %edi,(%esp)
  800050:	e8 d6 28 00 00       	call   80292b <_Z4seekii>
	seek(kfd, off);
  800055:	89 5c 24 04          	mov    %ebx,0x4(%esp)
  800059:	89 34 24             	mov    %esi,(%esp)
  80005c:	e8 ca 28 00 00       	call   80292b <_Z4seekii>

	cprintf("shell produced incorrect output.\n");
  800061:	c7 04 24 80 4f 80 00 	movl   $0x804f80,(%esp)
  800068:	e8 c1 06 00 00       	call   80072e <_Z7cprintfPKcz>
	cprintf("expected:\n===\n");
  80006d:	c7 04 24 1b 50 80 00 	movl   $0x80501b,(%esp)
  800074:	e8 b5 06 00 00       	call   80072e <_Z7cprintfPKcz>
	while ((n = read(kfd, buf, sizeof buf-1)) > 0)
  800079:	8d 5d 84             	lea    -0x7c(%ebp),%ebx
  80007c:	eb 0c                	jmp    80008a <_Z5wrongiii+0x56>
		sys_cputs(buf, n);
  80007e:	89 44 24 04          	mov    %eax,0x4(%esp)
  800082:	89 1c 24             	mov    %ebx,(%esp)
  800085:	e8 7a 10 00 00       	call   801104 <_Z9sys_cputsPKcj>
	seek(rfd, off);
	seek(kfd, off);

	cprintf("shell produced incorrect output.\n");
	cprintf("expected:\n===\n");
	while ((n = read(kfd, buf, sizeof buf-1)) > 0)
  80008a:	c7 44 24 08 63 00 00 	movl   $0x63,0x8(%esp)
  800091:	00 
  800092:	89 5c 24 04          	mov    %ebx,0x4(%esp)
  800096:	89 34 24             	mov    %esi,(%esp)
  800099:	e8 30 27 00 00       	call   8027ce <_Z4readiPvj>
  80009e:	85 c0                	test   %eax,%eax
  8000a0:	7f dc                	jg     80007e <_Z5wrongiii+0x4a>
		sys_cputs(buf, n);
	cprintf("===\ngot:\n===\n");
  8000a2:	c7 04 24 2a 50 80 00 	movl   $0x80502a,(%esp)
  8000a9:	e8 80 06 00 00       	call   80072e <_Z7cprintfPKcz>
	while ((n = read(rfd, buf, sizeof buf-1)) > 0)
  8000ae:	8d 5d 84             	lea    -0x7c(%ebp),%ebx
  8000b1:	eb 0c                	jmp    8000bf <_Z5wrongiii+0x8b>
		sys_cputs(buf, n);
  8000b3:	89 44 24 04          	mov    %eax,0x4(%esp)
  8000b7:	89 1c 24             	mov    %ebx,(%esp)
  8000ba:	e8 45 10 00 00       	call   801104 <_Z9sys_cputsPKcj>
	cprintf("shell produced incorrect output.\n");
	cprintf("expected:\n===\n");
	while ((n = read(kfd, buf, sizeof buf-1)) > 0)
		sys_cputs(buf, n);
	cprintf("===\ngot:\n===\n");
	while ((n = read(rfd, buf, sizeof buf-1)) > 0)
  8000bf:	c7 44 24 08 63 00 00 	movl   $0x63,0x8(%esp)
  8000c6:	00 
  8000c7:	89 5c 24 04          	mov    %ebx,0x4(%esp)
  8000cb:	89 3c 24             	mov    %edi,(%esp)
  8000ce:	e8 fb 26 00 00       	call   8027ce <_Z4readiPvj>
  8000d3:	85 c0                	test   %eax,%eax
  8000d5:	7f dc                	jg     8000b3 <_Z5wrongiii+0x7f>
		sys_cputs(buf, n);
	cprintf("===\n");
  8000d7:	c7 04 24 25 50 80 00 	movl   $0x805025,(%esp)
  8000de:	e8 4b 06 00 00       	call   80072e <_Z7cprintfPKcz>
	exit();
  8000e3:	e8 0c 05 00 00       	call   8005f4 <_Z4exitv>
}
  8000e8:	81 c4 8c 00 00 00    	add    $0x8c,%esp
  8000ee:	5b                   	pop    %ebx
  8000ef:	5e                   	pop    %esi
  8000f0:	5f                   	pop    %edi
  8000f1:	5d                   	pop    %ebp
  8000f2:	c3                   	ret    

008000f3 <_Z5umainiPPc>:

void wrong(int, int, int);

void
umain(int argc, char **argv)
{
  8000f3:	55                   	push   %ebp
  8000f4:	89 e5                	mov    %esp,%ebp
  8000f6:	57                   	push   %edi
  8000f7:	56                   	push   %esi
  8000f8:	53                   	push   %ebx
  8000f9:	83 ec 3c             	sub    $0x3c,%esp
	char c1, c2;
	int r, rfd, wfd, kfd, n1, n2, off, nloff;

	close(0);
  8000fc:	c7 04 24 00 00 00 00 	movl   $0x0,(%esp)
  800103:	e8 1d 25 00 00       	call   802625 <_Z5closei>
	close(1);
  800108:	c7 04 24 01 00 00 00 	movl   $0x1,(%esp)
  80010f:	e8 11 25 00 00       	call   802625 <_Z5closei>
	opencons();
  800114:	e8 20 04 00 00       	call   800539 <_Z8openconsv>
	opencons();
  800119:	e8 1b 04 00 00       	call   800539 <_Z8openconsv>

	if ((rfd = open("testshell.sh", O_RDONLY)) < 0)
  80011e:	c7 44 24 04 00 00 00 	movl   $0x0,0x4(%esp)
  800125:	00 
  800126:	c7 04 24 38 50 80 00 	movl   $0x805038,(%esp)
  80012d:	e8 2c 33 00 00       	call   80345e <_Z4openPKci>
  800132:	89 c6                	mov    %eax,%esi
  800134:	85 c0                	test   %eax,%eax
  800136:	79 20                	jns    800158 <_Z5umainiPPc+0x65>
		panic("open testshell.sh: %e", rfd);
  800138:	89 44 24 0c          	mov    %eax,0xc(%esp)
  80013c:	c7 44 24 08 45 50 80 	movl   $0x805045,0x8(%esp)
  800143:	00 
  800144:	c7 44 24 04 12 00 00 	movl   $0x12,0x4(%esp)
  80014b:	00 
  80014c:	c7 04 24 5b 50 80 00 	movl   $0x80505b,(%esp)
  800153:	e8 b8 04 00 00       	call   800610 <_Z6_panicPKciS0_z>
	if ((wfd = open("testshell.out", O_WRONLY|O_CREAT|O_TRUNC)) < 0)
  800158:	c7 44 24 04 01 03 00 	movl   $0x301,0x4(%esp)
  80015f:	00 
  800160:	c7 04 24 6c 50 80 00 	movl   $0x80506c,(%esp)
  800167:	e8 f2 32 00 00       	call   80345e <_Z4openPKci>
  80016c:	89 c7                	mov    %eax,%edi
  80016e:	85 c0                	test   %eax,%eax
  800170:	79 20                	jns    800192 <_Z5umainiPPc+0x9f>
		panic("open testshell.out: %e", wfd);
  800172:	89 44 24 0c          	mov    %eax,0xc(%esp)
  800176:	c7 44 24 08 7a 50 80 	movl   $0x80507a,0x8(%esp)
  80017d:	00 
  80017e:	c7 44 24 04 14 00 00 	movl   $0x14,0x4(%esp)
  800185:	00 
  800186:	c7 04 24 5b 50 80 00 	movl   $0x80505b,(%esp)
  80018d:	e8 7e 04 00 00       	call   800610 <_Z6_panicPKciS0_z>

	cprintf("running sh -x < testshell.sh > testshell.out\n");
  800192:	c7 04 24 a4 4f 80 00 	movl   $0x804fa4,(%esp)
  800199:	e8 90 05 00 00       	call   80072e <_Z7cprintfPKcz>
	if ((r = fork()) < 0)
  80019e:	e8 ca 16 00 00       	call   80186d <_Z4forkv>
  8001a3:	89 c3                	mov    %eax,%ebx
  8001a5:	85 c0                	test   %eax,%eax
  8001a7:	79 20                	jns    8001c9 <_Z5umainiPPc+0xd6>
		panic("fork: %e", r);
  8001a9:	89 44 24 0c          	mov    %eax,0xc(%esp)
  8001ad:	c7 44 24 08 08 55 80 	movl   $0x805508,0x8(%esp)
  8001b4:	00 
  8001b5:	c7 44 24 04 18 00 00 	movl   $0x18,0x4(%esp)
  8001bc:	00 
  8001bd:	c7 04 24 5b 50 80 00 	movl   $0x80505b,(%esp)
  8001c4:	e8 47 04 00 00       	call   800610 <_Z6_panicPKciS0_z>
	if (r == 0) {
  8001c9:	85 c0                	test   %eax,%eax
  8001cb:	0f 85 9f 00 00 00    	jne    800270 <_Z5umainiPPc+0x17d>
		dup(rfd, 0);
  8001d1:	c7 44 24 04 00 00 00 	movl   $0x0,0x4(%esp)
  8001d8:	00 
  8001d9:	89 34 24             	mov    %esi,(%esp)
  8001dc:	e8 9f 24 00 00       	call   802680 <_Z3dupii>
		dup(wfd, 1);
  8001e1:	c7 44 24 04 01 00 00 	movl   $0x1,0x4(%esp)
  8001e8:	00 
  8001e9:	89 3c 24             	mov    %edi,(%esp)
  8001ec:	e8 8f 24 00 00       	call   802680 <_Z3dupii>
		close(rfd);
  8001f1:	89 34 24             	mov    %esi,(%esp)
  8001f4:	e8 2c 24 00 00       	call   802625 <_Z5closei>
		close(wfd);
  8001f9:	89 3c 24             	mov    %edi,(%esp)
  8001fc:	e8 24 24 00 00       	call   802625 <_Z5closei>
		if ((r = spawnl("/sh", "sh", "-x", 0)) < 0)
  800201:	c7 44 24 0c 00 00 00 	movl   $0x0,0xc(%esp)
  800208:	00 
  800209:	c7 44 24 08 91 50 80 	movl   $0x805091,0x8(%esp)
  800210:	00 
  800211:	c7 44 24 04 42 50 80 	movl   $0x805042,0x4(%esp)
  800218:	00 
  800219:	c7 04 24 94 50 80 00 	movl   $0x805094,(%esp)
  800220:	e8 60 21 00 00       	call   802385 <_Z6spawnlPKcS0_z>
  800225:	89 c3                	mov    %eax,%ebx
  800227:	85 c0                	test   %eax,%eax
  800229:	79 20                	jns    80024b <_Z5umainiPPc+0x158>
			panic("spawn: %e", r);
  80022b:	89 44 24 0c          	mov    %eax,0xc(%esp)
  80022f:	c7 44 24 08 98 50 80 	movl   $0x805098,0x8(%esp)
  800236:	00 
  800237:	c7 44 24 04 1f 00 00 	movl   $0x1f,0x4(%esp)
  80023e:	00 
  80023f:	c7 04 24 5b 50 80 00 	movl   $0x80505b,(%esp)
  800246:	e8 c5 03 00 00       	call   800610 <_Z6_panicPKciS0_z>
		close(0);
  80024b:	c7 04 24 00 00 00 00 	movl   $0x0,(%esp)
  800252:	e8 ce 23 00 00       	call   802625 <_Z5closei>
		close(1);
  800257:	c7 04 24 01 00 00 00 	movl   $0x1,(%esp)
  80025e:	e8 c2 23 00 00       	call   802625 <_Z5closei>
		wait(r);
  800263:	89 1c 24             	mov    %ebx,(%esp)
  800266:	e8 05 43 00 00       	call   804570 <_Z4waiti>
		exit();
  80026b:	e8 84 03 00 00       	call   8005f4 <_Z4exitv>
	}
	close(rfd);
  800270:	89 34 24             	mov    %esi,(%esp)
  800273:	e8 ad 23 00 00       	call   802625 <_Z5closei>
	close(wfd);
  800278:	89 3c 24             	mov    %edi,(%esp)
  80027b:	e8 a5 23 00 00       	call   802625 <_Z5closei>
	wait(r);
  800280:	89 1c 24             	mov    %ebx,(%esp)
  800283:	e8 e8 42 00 00       	call   804570 <_Z4waiti>

	if ((rfd = open("testshell.out", O_RDONLY)) < 0)
  800288:	c7 44 24 04 00 00 00 	movl   $0x0,0x4(%esp)
  80028f:	00 
  800290:	c7 04 24 6c 50 80 00 	movl   $0x80506c,(%esp)
  800297:	e8 c2 31 00 00       	call   80345e <_Z4openPKci>
  80029c:	89 45 d4             	mov    %eax,-0x2c(%ebp)
  80029f:	85 c0                	test   %eax,%eax
  8002a1:	79 20                	jns    8002c3 <_Z5umainiPPc+0x1d0>
		panic("open testshell.out for reading: %e", rfd);
  8002a3:	89 44 24 0c          	mov    %eax,0xc(%esp)
  8002a7:	c7 44 24 08 d4 4f 80 	movl   $0x804fd4,0x8(%esp)
  8002ae:	00 
  8002af:	c7 44 24 04 2a 00 00 	movl   $0x2a,0x4(%esp)
  8002b6:	00 
  8002b7:	c7 04 24 5b 50 80 00 	movl   $0x80505b,(%esp)
  8002be:	e8 4d 03 00 00       	call   800610 <_Z6_panicPKciS0_z>
	if ((kfd = open("testshell.key", O_RDONLY)) < 0)
  8002c3:	c7 44 24 04 00 00 00 	movl   $0x0,0x4(%esp)
  8002ca:	00 
  8002cb:	c7 04 24 a2 50 80 00 	movl   $0x8050a2,(%esp)
  8002d2:	e8 87 31 00 00       	call   80345e <_Z4openPKci>
  8002d7:	89 45 d0             	mov    %eax,-0x30(%ebp)
  8002da:	85 c0                	test   %eax,%eax
  8002dc:	79 20                	jns    8002fe <_Z5umainiPPc+0x20b>
		panic("open testshell.key for reading: %e", kfd);
  8002de:	89 44 24 0c          	mov    %eax,0xc(%esp)
  8002e2:	c7 44 24 08 f8 4f 80 	movl   $0x804ff8,0x8(%esp)
  8002e9:	00 
  8002ea:	c7 44 24 04 2c 00 00 	movl   $0x2c,0x4(%esp)
  8002f1:	00 
  8002f2:	c7 04 24 5b 50 80 00 	movl   $0x80505b,(%esp)
  8002f9:	e8 12 03 00 00       	call   800610 <_Z6_panicPKciS0_z>
	close(wfd);
	wait(r);

	if ((rfd = open("testshell.out", O_RDONLY)) < 0)
		panic("open testshell.out for reading: %e", rfd);
	if ((kfd = open("testshell.key", O_RDONLY)) < 0)
  8002fe:	bf 01 00 00 00       	mov    $0x1,%edi
  800303:	be 00 00 00 00       	mov    $0x0,%esi
		panic("open testshell.key for reading: %e", kfd);

	nloff = 0;
	for (off=0;; off++) {
		n1 = read(rfd, &c1, 1);
  800308:	c7 44 24 08 01 00 00 	movl   $0x1,0x8(%esp)
  80030f:	00 
  800310:	8d 45 e7             	lea    -0x19(%ebp),%eax
  800313:	89 44 24 04          	mov    %eax,0x4(%esp)
  800317:	8b 55 d4             	mov    -0x2c(%ebp),%edx
  80031a:	89 14 24             	mov    %edx,(%esp)
  80031d:	e8 ac 24 00 00       	call   8027ce <_Z4readiPvj>
  800322:	89 c3                	mov    %eax,%ebx
		n2 = read(kfd, &c2, 1);
  800324:	c7 44 24 08 01 00 00 	movl   $0x1,0x8(%esp)
  80032b:	00 
  80032c:	8d 45 e6             	lea    -0x1a(%ebp),%eax
  80032f:	89 44 24 04          	mov    %eax,0x4(%esp)
  800333:	8b 55 d0             	mov    -0x30(%ebp),%edx
  800336:	89 14 24             	mov    %edx,(%esp)
  800339:	e8 90 24 00 00       	call   8027ce <_Z4readiPvj>
		if (n1 < 0)
  80033e:	85 db                	test   %ebx,%ebx
  800340:	79 20                	jns    800362 <_Z5umainiPPc+0x26f>
			panic("reading testshell.out: %e", n1);
  800342:	89 5c 24 0c          	mov    %ebx,0xc(%esp)
  800346:	c7 44 24 08 b0 50 80 	movl   $0x8050b0,0x8(%esp)
  80034d:	00 
  80034e:	c7 44 24 04 33 00 00 	movl   $0x33,0x4(%esp)
  800355:	00 
  800356:	c7 04 24 5b 50 80 00 	movl   $0x80505b,(%esp)
  80035d:	e8 ae 02 00 00       	call   800610 <_Z6_panicPKciS0_z>
		if (n2 < 0)
  800362:	85 c0                	test   %eax,%eax
  800364:	79 20                	jns    800386 <_Z5umainiPPc+0x293>
			panic("reading testshell.key: %e", n2);
  800366:	89 44 24 0c          	mov    %eax,0xc(%esp)
  80036a:	c7 44 24 08 ca 50 80 	movl   $0x8050ca,0x8(%esp)
  800371:	00 
  800372:	c7 44 24 04 35 00 00 	movl   $0x35,0x4(%esp)
  800379:	00 
  80037a:	c7 04 24 5b 50 80 00 	movl   $0x80505b,(%esp)
  800381:	e8 8a 02 00 00       	call   800610 <_Z6_panicPKciS0_z>
		if (n1 == 0 && n2 == 0)
  800386:	89 c2                	mov    %eax,%edx
  800388:	09 da                	or     %ebx,%edx
  80038a:	74 38                	je     8003c4 <_Z5umainiPPc+0x2d1>
			break;
		if (n1 != 1 || n2 != 1 || c1 != c2)
  80038c:	83 fb 01             	cmp    $0x1,%ebx
  80038f:	75 0e                	jne    80039f <_Z5umainiPPc+0x2ac>
  800391:	83 f8 01             	cmp    $0x1,%eax
  800394:	75 09                	jne    80039f <_Z5umainiPPc+0x2ac>
  800396:	0f b6 45 e6          	movzbl -0x1a(%ebp),%eax
  80039a:	38 45 e7             	cmp    %al,-0x19(%ebp)
  80039d:	74 16                	je     8003b5 <_Z5umainiPPc+0x2c2>
			wrong(rfd, kfd, nloff);
  80039f:	89 74 24 08          	mov    %esi,0x8(%esp)
  8003a3:	8b 55 d0             	mov    -0x30(%ebp),%edx
  8003a6:	89 54 24 04          	mov    %edx,0x4(%esp)
  8003aa:	8b 45 d4             	mov    -0x2c(%ebp),%eax
  8003ad:	89 04 24             	mov    %eax,(%esp)
  8003b0:	e8 7f fc ff ff       	call   800034 <_Z5wrongiii>
		if (c1 == '\n')
  8003b5:	80 7d e7 0a          	cmpb   $0xa,-0x19(%ebp)
  8003b9:	0f 44 f7             	cmove  %edi,%esi
  8003bc:	83 c7 01             	add    $0x1,%edi
		panic("open testshell.out for reading: %e", rfd);
	if ((kfd = open("testshell.key", O_RDONLY)) < 0)
		panic("open testshell.key for reading: %e", kfd);

	nloff = 0;
	for (off=0;; off++) {
  8003bf:	e9 44 ff ff ff       	jmp    800308 <_Z5umainiPPc+0x215>
		if (n1 != 1 || n2 != 1 || c1 != c2)
			wrong(rfd, kfd, nloff);
		if (c1 == '\n')
			nloff = off+1;
	}
	cprintf("shell ran correctly\n");
  8003c4:	c7 04 24 e4 50 80 00 	movl   $0x8050e4,(%esp)
  8003cb:	e8 5e 03 00 00       	call   80072e <_Z7cprintfPKcz>
static __inline uint64_t read_tsc(void) __attribute__((always_inline));

static __inline void
breakpoint(void)
{
	__asm __volatile("int3");
  8003d0:	cc                   	int3   

	breakpoint();
}
  8003d1:	83 c4 3c             	add    $0x3c,%esp
  8003d4:	5b                   	pop    %ebx
  8003d5:	5e                   	pop    %esi
  8003d6:	5f                   	pop    %edi
  8003d7:	5d                   	pop    %ebp
  8003d8:	c3                   	ret    
  8003d9:	00 00                	add    %al,(%eax)
  8003db:	00 00                	add    %al,(%eax)
  8003dd:	00 00                	add    %al,(%eax)
	...

008003e0 <_ZL13devcons_closeP2Fd>:
	return tot;
}

static int
devcons_close(struct Fd *fd)
{
  8003e0:	55                   	push   %ebp
  8003e1:	89 e5                	mov    %esp,%ebp
	USED(fd);

	return 0;
}
  8003e3:	b8 00 00 00 00       	mov    $0x0,%eax
  8003e8:	5d                   	pop    %ebp
  8003e9:	c3                   	ret    

008003ea <_ZL12devcons_statP2FdP4Stat>:

static int
devcons_stat(struct Fd *fd, struct Stat *stat)
{
  8003ea:	55                   	push   %ebp
  8003eb:	89 e5                	mov    %esp,%ebp
  8003ed:	83 ec 18             	sub    $0x18,%esp
	strcpy(stat->st_name, "<cons>");
  8003f0:	c7 44 24 04 f9 50 80 	movl   $0x8050f9,0x4(%esp)
  8003f7:	00 
  8003f8:	8b 45 0c             	mov    0xc(%ebp),%eax
  8003fb:	89 04 24             	mov    %eax,(%esp)
  8003fe:	e8 47 09 00 00       	call   800d4a <_Z6strcpyPcPKc>
	return 0;
}
  800403:	b8 00 00 00 00       	mov    $0x0,%eax
  800408:	c9                   	leave  
  800409:	c3                   	ret    

0080040a <_ZL13devcons_writeP2FdPKvj>:
	return 1;
}

static ssize_t
devcons_write(struct Fd *fd, const void *vbuf, size_t n)
{
  80040a:	55                   	push   %ebp
  80040b:	89 e5                	mov    %esp,%ebp
  80040d:	57                   	push   %edi
  80040e:	56                   	push   %esi
  80040f:	53                   	push   %ebx
  800410:	81 ec 9c 00 00 00    	sub    $0x9c,%esp
	size_t tot, m;
	char buf[128];

	// mistake: have to nul-terminate arg to sys_cputs,
	// so we have to copy vbuf into buf in chunks and nul-terminate.
	for (tot = 0; tot < n; tot += m) {
  800416:	bb 00 00 00 00       	mov    $0x0,%ebx
  80041b:	83 7d 10 00          	cmpl   $0x0,0x10(%ebp)
  80041f:	74 3e                	je     80045f <_ZL13devcons_writeP2FdPKvj+0x55>
		m = n - tot;
		if (m > sizeof(buf) - 1)
			m = sizeof(buf) - 1;
		memmove(buf, (char*)vbuf + tot, m);
  800421:	8d bd 68 ff ff ff    	lea    -0x98(%ebp),%edi
	char buf[128];

	// mistake: have to nul-terminate arg to sys_cputs,
	// so we have to copy vbuf into buf in chunks and nul-terminate.
	for (tot = 0; tot < n; tot += m) {
		m = n - tot;
  800427:	8b 75 10             	mov    0x10(%ebp),%esi
  80042a:	29 de                	sub    %ebx,%esi
  80042c:	83 fe 7f             	cmp    $0x7f,%esi
  80042f:	b8 7f 00 00 00       	mov    $0x7f,%eax
  800434:	0f 47 f0             	cmova  %eax,%esi
		if (m > sizeof(buf) - 1)
			m = sizeof(buf) - 1;
		memmove(buf, (char*)vbuf + tot, m);
  800437:	89 74 24 08          	mov    %esi,0x8(%esp)
  80043b:	8b 45 0c             	mov    0xc(%ebp),%eax
  80043e:	01 d8                	add    %ebx,%eax
  800440:	89 44 24 04          	mov    %eax,0x4(%esp)
  800444:	89 3c 24             	mov    %edi,(%esp)
  800447:	e8 a0 0a 00 00       	call   800eec <memmove>
		sys_cputs(buf, m);
  80044c:	89 74 24 04          	mov    %esi,0x4(%esp)
  800450:	89 3c 24             	mov    %edi,(%esp)
  800453:	e8 ac 0c 00 00       	call   801104 <_Z9sys_cputsPKcj>
	size_t tot, m;
	char buf[128];

	// mistake: have to nul-terminate arg to sys_cputs,
	// so we have to copy vbuf into buf in chunks and nul-terminate.
	for (tot = 0; tot < n; tot += m) {
  800458:	01 f3                	add    %esi,%ebx
  80045a:	39 5d 10             	cmp    %ebx,0x10(%ebp)
  80045d:	77 c8                	ja     800427 <_ZL13devcons_writeP2FdPKvj+0x1d>
			m = sizeof(buf) - 1;
		memmove(buf, (char*)vbuf + tot, m);
		sys_cputs(buf, m);
	}
	return tot;
}
  80045f:	89 d8                	mov    %ebx,%eax
  800461:	81 c4 9c 00 00 00    	add    $0x9c,%esp
  800467:	5b                   	pop    %ebx
  800468:	5e                   	pop    %esi
  800469:	5f                   	pop    %edi
  80046a:	5d                   	pop    %ebp
  80046b:	c3                   	ret    

0080046c <_ZL12devcons_readP2FdPvj>:
	return fd2num(fd);
}

static ssize_t
devcons_read(struct Fd *fd, void *vbuf, size_t n)
{
  80046c:	55                   	push   %ebp
  80046d:	89 e5                	mov    %esp,%ebp
  80046f:	83 ec 08             	sub    $0x8,%esp
	int c;

	if (n == 0)
		return 0;
  800472:	b8 00 00 00 00       	mov    $0x0,%eax
static ssize_t
devcons_read(struct Fd *fd, void *vbuf, size_t n)
{
	int c;

	if (n == 0)
  800477:	83 7d 10 00          	cmpl   $0x0,0x10(%ebp)
  80047b:	75 07                	jne    800484 <_ZL12devcons_readP2FdPvj+0x18>
  80047d:	eb 2a                	jmp    8004a9 <_ZL12devcons_readP2FdPvj+0x3d>
		return 0;

	while ((c = sys_cgetc()) == 0)
		sys_yield();
  80047f:	e8 78 0d 00 00       	call   8011fc <_Z9sys_yieldv>
	int c;

	if (n == 0)
		return 0;

	while ((c = sys_cgetc()) == 0)
  800484:	e8 ae 0c 00 00       	call   801137 <_Z9sys_cgetcv>
  800489:	85 c0                	test   %eax,%eax
  80048b:	74 f2                	je     80047f <_ZL12devcons_readP2FdPvj+0x13>
  80048d:	89 c2                	mov    %eax,%edx
		sys_yield();
	if (c < 0)
  80048f:	85 c0                	test   %eax,%eax
  800491:	78 16                	js     8004a9 <_ZL12devcons_readP2FdPvj+0x3d>
		return c;
	if (c == 0x04)	// ctl-d is eof
  800493:	83 f8 04             	cmp    $0x4,%eax
  800496:	74 0c                	je     8004a4 <_ZL12devcons_readP2FdPvj+0x38>
		return 0;
	*(char*)vbuf = c;
  800498:	8b 45 0c             	mov    0xc(%ebp),%eax
  80049b:	88 10                	mov    %dl,(%eax)
	return 1;
  80049d:	b8 01 00 00 00       	mov    $0x1,%eax
  8004a2:	eb 05                	jmp    8004a9 <_ZL12devcons_readP2FdPvj+0x3d>
	while ((c = sys_cgetc()) == 0)
		sys_yield();
	if (c < 0)
		return c;
	if (c == 0x04)	// ctl-d is eof
		return 0;
  8004a4:	b8 00 00 00 00       	mov    $0x0,%eax
	*(char*)vbuf = c;
	return 1;
}
  8004a9:	c9                   	leave  
  8004aa:	c3                   	ret    

008004ab <_Z8cputchari>:
#include <inc/string.h>
#include <inc/lib.h>

void
cputchar(int ch)
{
  8004ab:	55                   	push   %ebp
  8004ac:	89 e5                	mov    %esp,%ebp
  8004ae:	83 ec 28             	sub    $0x28,%esp
	char c = ch;
  8004b1:	8b 45 08             	mov    0x8(%ebp),%eax
  8004b4:	88 45 f7             	mov    %al,-0x9(%ebp)

	// Unlike standard Unix's putchar,
	// the cputchar function _always_ outputs to the system console.
	sys_cputs(&c, 1);
  8004b7:	c7 44 24 04 01 00 00 	movl   $0x1,0x4(%esp)
  8004be:	00 
  8004bf:	8d 45 f7             	lea    -0x9(%ebp),%eax
  8004c2:	89 04 24             	mov    %eax,(%esp)
  8004c5:	e8 3a 0c 00 00       	call   801104 <_Z9sys_cputsPKcj>
}
  8004ca:	c9                   	leave  
  8004cb:	c3                   	ret    

008004cc <_Z7getcharv>:

int
getchar(void)
{
  8004cc:	55                   	push   %ebp
  8004cd:	89 e5                	mov    %esp,%ebp
  8004cf:	83 ec 28             	sub    $0x28,%esp
	int r;

	// JOS does, however, support standard _input_ redirection,
	// allowing the user to redirect script files to the shell and such.
	// getchar() reads a character from file descriptor 0.
	r = read(0, &c, 1);
  8004d2:	c7 44 24 08 01 00 00 	movl   $0x1,0x8(%esp)
  8004d9:	00 
  8004da:	8d 45 f7             	lea    -0x9(%ebp),%eax
  8004dd:	89 44 24 04          	mov    %eax,0x4(%esp)
  8004e1:	c7 04 24 00 00 00 00 	movl   $0x0,(%esp)
  8004e8:	e8 e1 22 00 00       	call   8027ce <_Z4readiPvj>
	if (r < 0)
  8004ed:	85 c0                	test   %eax,%eax
  8004ef:	78 0f                	js     800500 <_Z7getcharv+0x34>
		return r;
	if (r < 1)
  8004f1:	85 c0                	test   %eax,%eax
  8004f3:	7e 06                	jle    8004fb <_Z7getcharv+0x2f>
		return -E_EOF;
	return c;
  8004f5:	0f b6 45 f7          	movzbl -0x9(%ebp),%eax
  8004f9:	eb 05                	jmp    800500 <_Z7getcharv+0x34>
	// getchar() reads a character from file descriptor 0.
	r = read(0, &c, 1);
	if (r < 0)
		return r;
	if (r < 1)
		return -E_EOF;
  8004fb:	b8 f8 ff ff ff       	mov    $0xfffffff8,%eax
	return c;
}
  800500:	c9                   	leave  
  800501:	c3                   	ret    

00800502 <_Z6isconsi>:
	/* .dev_trunc = */	0
};

int
iscons(int fdnum)
{
  800502:	55                   	push   %ebp
  800503:	89 e5                	mov    %esp,%ebp
  800505:	83 ec 28             	sub    $0x28,%esp
	struct Fd *fd;
	int r;
	if ((r = fd_lookup(fdnum, &fd, true)) < 0)
  800508:	c7 44 24 08 01 00 00 	movl   $0x1,0x8(%esp)
  80050f:	00 
  800510:	8d 45 f4             	lea    -0xc(%ebp),%eax
  800513:	89 44 24 04          	mov    %eax,0x4(%esp)
  800517:	8b 45 08             	mov    0x8(%ebp),%eax
  80051a:	89 04 24             	mov    %eax,(%esp)
  80051d:	e8 ff 1e 00 00       	call   802421 <_Z9fd_lookupiPP2Fdb>
  800522:	85 c0                	test   %eax,%eax
  800524:	78 11                	js     800537 <_Z6isconsi+0x35>
		return r;
	else
		return fd->fd_dev_id == devcons.dev_id;
  800526:	8b 45 f4             	mov    -0xc(%ebp),%eax
  800529:	8b 15 00 60 80 00    	mov    0x806000,%edx
  80052f:	39 10                	cmp    %edx,(%eax)
  800531:	0f 94 c0             	sete   %al
  800534:	0f b6 c0             	movzbl %al,%eax
}
  800537:	c9                   	leave  
  800538:	c3                   	ret    

00800539 <_Z8openconsv>:

int
opencons(void)
{
  800539:	55                   	push   %ebp
  80053a:	89 e5                	mov    %esp,%ebp
  80053c:	83 ec 28             	sub    $0x28,%esp
	int r;
	struct Fd* fd;

	if ((r = fd_find_unused(&fd)) < 0)
  80053f:	8d 45 f4             	lea    -0xc(%ebp),%eax
  800542:	89 04 24             	mov    %eax,(%esp)
  800545:	e8 8d 1f 00 00       	call   8024d7 <_Z14fd_find_unusedPP2Fd>
  80054a:	85 c0                	test   %eax,%eax
  80054c:	78 3c                	js     80058a <_Z8openconsv+0x51>
		return r;
	if ((r = sys_page_alloc(0, fd, PTE_P|PTE_U|PTE_W|PTE_SHARE)) < 0)
  80054e:	c7 44 24 08 07 04 00 	movl   $0x407,0x8(%esp)
  800555:	00 
  800556:	8b 45 f4             	mov    -0xc(%ebp),%eax
  800559:	89 44 24 04          	mov    %eax,0x4(%esp)
  80055d:	c7 04 24 00 00 00 00 	movl   $0x0,(%esp)
  800564:	e8 c7 0c 00 00       	call   801230 <_Z14sys_page_allociPvi>
  800569:	85 c0                	test   %eax,%eax
  80056b:	78 1d                	js     80058a <_Z8openconsv+0x51>
		return r;
	fd->fd_dev_id = devcons.dev_id;
  80056d:	8b 15 00 60 80 00    	mov    0x806000,%edx
  800573:	8b 45 f4             	mov    -0xc(%ebp),%eax
  800576:	89 10                	mov    %edx,(%eax)
	fd->fd_omode = O_RDWR;
  800578:	8b 45 f4             	mov    -0xc(%ebp),%eax
  80057b:	c7 40 08 02 00 00 00 	movl   $0x2,0x8(%eax)
	return fd2num(fd);
  800582:	89 04 24             	mov    %eax,(%esp)
  800585:	e8 ea 1e 00 00       	call   802474 <_Z6fd2numP2Fd>
}
  80058a:	c9                   	leave  
  80058b:	c3                   	ret    

0080058c <libmain>:
const volatile struct Env *thisenv;
const char *binaryname = "<unknown>";

asmlinkage void
libmain(int argc, char **argv)
{
  80058c:	55                   	push   %ebp
  80058d:	89 e5                	mov    %esp,%ebp
  80058f:	57                   	push   %edi
  800590:	56                   	push   %esi
  800591:	53                   	push   %ebx
  800592:	83 ec 1c             	sub    $0x1c,%esp
  800595:	8b 7d 08             	mov    0x8(%ebp),%edi
  800598:	8b 75 0c             	mov    0xc(%ebp),%esi
	extern uintptr_t sctors[], ectors[];
	uintptr_t *ctorva;

	// set thisenv to point at our Env structure in envs[]
	thisenv = &envs[ENVX(sys_getenvid())]; /* Really? */
  80059b:	e8 28 0c 00 00       	call   8011c8 <_Z12sys_getenvidv>
  8005a0:	25 ff 03 00 00       	and    $0x3ff,%eax
  8005a5:	6b c0 78             	imul   $0x78,%eax,%eax
  8005a8:	05 00 00 00 ef       	add    $0xef000000,%eax
  8005ad:	a3 00 70 80 00       	mov    %eax,0x807000
	// save the name of the program so that panic() can use it
	if (argc > 0)
  8005b2:	85 ff                	test   %edi,%edi
  8005b4:	7e 07                	jle    8005bd <libmain+0x31>
		binaryname = argv[0];
  8005b6:	8b 06                	mov    (%esi),%eax
  8005b8:	a3 1c 60 80 00       	mov    %eax,0x80601c

	// Call any global constructors (e.g., defined by C++).
	// This relies on linker script magic to define the 'sctors' and
	// 'ectors' symbols; see user/user.ld.
	for (ctorva = ectors; ctorva > sctors; )
  8005bd:	b8 29 5d 80 00       	mov    $0x805d29,%eax
  8005c2:	3d 29 5d 80 00       	cmp    $0x805d29,%eax
  8005c7:	76 0f                	jbe    8005d8 <libmain+0x4c>
  8005c9:	89 c3                	mov    %eax,%ebx
		((void(*)()) *--ctorva)();
  8005cb:	83 eb 04             	sub    $0x4,%ebx
  8005ce:	ff 13                	call   *(%ebx)
		binaryname = argv[0];

	// Call any global constructors (e.g., defined by C++).
	// This relies on linker script magic to define the 'sctors' and
	// 'ectors' symbols; see user/user.ld.
	for (ctorva = ectors; ctorva > sctors; )
  8005d0:	81 fb 29 5d 80 00    	cmp    $0x805d29,%ebx
  8005d6:	77 f3                	ja     8005cb <libmain+0x3f>
		((void(*)()) *--ctorva)();

	// call user main routine
	umain(argc, argv);
  8005d8:	89 74 24 04          	mov    %esi,0x4(%esp)
  8005dc:	89 3c 24             	mov    %edi,(%esp)
  8005df:	e8 0f fb ff ff       	call   8000f3 <_Z5umainiPPc>

	// exit gracefully
	exit();
  8005e4:	e8 0b 00 00 00       	call   8005f4 <_Z4exitv>
}
  8005e9:	83 c4 1c             	add    $0x1c,%esp
  8005ec:	5b                   	pop    %ebx
  8005ed:	5e                   	pop    %esi
  8005ee:	5f                   	pop    %edi
  8005ef:	5d                   	pop    %ebp
  8005f0:	c3                   	ret    
  8005f1:	00 00                	add    %al,(%eax)
	...

008005f4 <_Z4exitv>:

#include <inc/lib.h>

void
exit(void)
{
  8005f4:	55                   	push   %ebp
  8005f5:	89 e5                	mov    %esp,%ebp
  8005f7:	83 ec 18             	sub    $0x18,%esp
	close_all();
  8005fa:	e8 5f 20 00 00       	call   80265e <_Z9close_allv>
	sys_env_destroy(0);
  8005ff:	c7 04 24 00 00 00 00 	movl   $0x0,(%esp)
  800606:	e8 60 0b 00 00       	call   80116b <_Z15sys_env_destroyi>
}
  80060b:	c9                   	leave  
  80060c:	c3                   	ret    
  80060d:	00 00                	add    %al,(%eax)
	...

00800610 <_Z6_panicPKciS0_z>:
 * It prints "panic: <message>", then causes a breakpoint exception,
 * which causes JOS to enter the JOS kernel monitor.
 */
void
_panic(const char *file, int line, const char *fmt, ...)
{
  800610:	55                   	push   %ebp
  800611:	89 e5                	mov    %esp,%ebp
  800613:	56                   	push   %esi
  800614:	53                   	push   %ebx
  800615:	83 ec 20             	sub    $0x20,%esp
	va_list ap;

	va_start(ap, fmt);
  800618:	8d 75 14             	lea    0x14(%ebp),%esi

	// Print the panic message
	if (argv0)
  80061b:	a1 04 70 80 00       	mov    0x807004,%eax
  800620:	85 c0                	test   %eax,%eax
  800622:	74 10                	je     800634 <_Z6_panicPKciS0_z+0x24>
		cprintf("%s: ", argv0);
  800624:	89 44 24 04          	mov    %eax,0x4(%esp)
  800628:	c7 04 24 0f 51 80 00 	movl   $0x80510f,(%esp)
  80062f:	e8 fa 00 00 00       	call   80072e <_Z7cprintfPKcz>
	cprintf("[%08x] user panic in %s at %s:%d: ",
		sys_getenvid(), binaryname, file, line);
  800634:	8b 1d 1c 60 80 00    	mov    0x80601c,%ebx
  80063a:	e8 89 0b 00 00       	call   8011c8 <_Z12sys_getenvidv>
  80063f:	8b 55 0c             	mov    0xc(%ebp),%edx
  800642:	89 54 24 10          	mov    %edx,0x10(%esp)
  800646:	8b 55 08             	mov    0x8(%ebp),%edx
  800649:	89 54 24 0c          	mov    %edx,0xc(%esp)
  80064d:	89 5c 24 08          	mov    %ebx,0x8(%esp)
  800651:	89 44 24 04          	mov    %eax,0x4(%esp)
  800655:	c7 04 24 14 51 80 00 	movl   $0x805114,(%esp)
  80065c:	e8 cd 00 00 00       	call   80072e <_Z7cprintfPKcz>
	vcprintf(fmt, ap);
  800661:	89 74 24 04          	mov    %esi,0x4(%esp)
  800665:	8b 45 10             	mov    0x10(%ebp),%eax
  800668:	89 04 24             	mov    %eax,(%esp)
  80066b:	e8 5d 00 00 00       	call   8006cd <_Z8vcprintfPKcPc>
	cprintf("\n");
  800670:	c7 04 24 28 50 80 00 	movl   $0x805028,(%esp)
  800677:	e8 b2 00 00 00       	call   80072e <_Z7cprintfPKcz>

	// Cause a breakpoint exception
	while (1)
		asm volatile("int3");
  80067c:	cc                   	int3   
  80067d:	eb fd                	jmp    80067c <_Z6_panicPKciS0_z+0x6c>
	...

00800680 <_ZL5putchiPv>:
};


static void
putch(int ch, void *ptr)
{
  800680:	55                   	push   %ebp
  800681:	89 e5                	mov    %esp,%ebp
  800683:	83 ec 18             	sub    $0x18,%esp
  800686:	89 5d f8             	mov    %ebx,-0x8(%ebp)
  800689:	89 75 fc             	mov    %esi,-0x4(%ebp)
  80068c:	8b 5d 0c             	mov    0xc(%ebp),%ebx
	struct printbuf *b = (struct printbuf *) ptr;
  80068f:	89 de                	mov    %ebx,%esi
	b->buf[b->idx++] = ch;
  800691:	8b 03                	mov    (%ebx),%eax
  800693:	8b 55 08             	mov    0x8(%ebp),%edx
  800696:	88 54 03 08          	mov    %dl,0x8(%ebx,%eax,1)
  80069a:	83 c0 01             	add    $0x1,%eax
  80069d:	89 03                	mov    %eax,(%ebx)
	if (b->idx == 256-1) {
  80069f:	3d ff 00 00 00       	cmp    $0xff,%eax
  8006a4:	75 19                	jne    8006bf <_ZL5putchiPv+0x3f>
		sys_cputs(b->buf, b->idx);
  8006a6:	c7 44 24 04 ff 00 00 	movl   $0xff,0x4(%esp)
  8006ad:	00 
  8006ae:	8d 43 08             	lea    0x8(%ebx),%eax
  8006b1:	89 04 24             	mov    %eax,(%esp)
  8006b4:	e8 4b 0a 00 00       	call   801104 <_Z9sys_cputsPKcj>
		b->idx = 0;
  8006b9:	c7 03 00 00 00 00    	movl   $0x0,(%ebx)
	}
	b->cnt++;
  8006bf:	83 46 04 01          	addl   $0x1,0x4(%esi)
}
  8006c3:	8b 5d f8             	mov    -0x8(%ebp),%ebx
  8006c6:	8b 75 fc             	mov    -0x4(%ebp),%esi
  8006c9:	89 ec                	mov    %ebp,%esp
  8006cb:	5d                   	pop    %ebp
  8006cc:	c3                   	ret    

008006cd <_Z8vcprintfPKcPc>:

int
vcprintf(const char *fmt, va_list ap)
{
  8006cd:	55                   	push   %ebp
  8006ce:	89 e5                	mov    %esp,%ebp
  8006d0:	81 ec 28 01 00 00    	sub    $0x128,%esp
	struct printbuf b;

	b.idx = 0;
  8006d6:	c7 85 f0 fe ff ff 00 	movl   $0x0,-0x110(%ebp)
  8006dd:	00 00 00 
	b.cnt = 0;
  8006e0:	c7 85 f4 fe ff ff 00 	movl   $0x0,-0x10c(%ebp)
  8006e7:	00 00 00 
	vprintfmt(putch, &b, fmt, ap);
  8006ea:	8b 45 0c             	mov    0xc(%ebp),%eax
  8006ed:	89 44 24 0c          	mov    %eax,0xc(%esp)
  8006f1:	8b 45 08             	mov    0x8(%ebp),%eax
  8006f4:	89 44 24 08          	mov    %eax,0x8(%esp)
  8006f8:	8d 85 f0 fe ff ff    	lea    -0x110(%ebp),%eax
  8006fe:	89 44 24 04          	mov    %eax,0x4(%esp)
  800702:	c7 04 24 80 06 80 00 	movl   $0x800680,(%esp)
  800709:	e8 a9 01 00 00       	call   8008b7 <_Z9vprintfmtPFviPvES_PKcPc>
	sys_cputs(b.buf, b.idx);
  80070e:	8b 85 f0 fe ff ff    	mov    -0x110(%ebp),%eax
  800714:	89 44 24 04          	mov    %eax,0x4(%esp)
  800718:	8d 85 f8 fe ff ff    	lea    -0x108(%ebp),%eax
  80071e:	89 04 24             	mov    %eax,(%esp)
  800721:	e8 de 09 00 00       	call   801104 <_Z9sys_cputsPKcj>

	return b.cnt;
}
  800726:	8b 85 f4 fe ff ff    	mov    -0x10c(%ebp),%eax
  80072c:	c9                   	leave  
  80072d:	c3                   	ret    

0080072e <_Z7cprintfPKcz>:

int
cprintf(const char *fmt, ...)
{
  80072e:	55                   	push   %ebp
  80072f:	89 e5                	mov    %esp,%ebp
  800731:	83 ec 18             	sub    $0x18,%esp
	va_list ap;
	int cnt;

	va_start(ap, fmt);
  800734:	8d 45 0c             	lea    0xc(%ebp),%eax
	cnt = vcprintf(fmt, ap);
  800737:	89 44 24 04          	mov    %eax,0x4(%esp)
  80073b:	8b 45 08             	mov    0x8(%ebp),%eax
  80073e:	89 04 24             	mov    %eax,(%esp)
  800741:	e8 87 ff ff ff       	call   8006cd <_Z8vcprintfPKcPc>
	va_end(ap);

	return cnt;
}
  800746:	c9                   	leave  
  800747:	c3                   	ret    
	...

00800750 <_ZL8printnumPFviPvES_yjii>:
 * using specified putch function and associated pointer putdat.
 */
static void
printnum(void (*putch)(int, void*), void *putdat,
	 unsigned long long num, unsigned base, int width, int padc)
{
  800750:	55                   	push   %ebp
  800751:	89 e5                	mov    %esp,%ebp
  800753:	57                   	push   %edi
  800754:	56                   	push   %esi
  800755:	53                   	push   %ebx
  800756:	83 ec 4c             	sub    $0x4c,%esp
  800759:	89 45 e4             	mov    %eax,-0x1c(%ebp)
  80075c:	89 d6                	mov    %edx,%esi
  80075e:	8b 45 08             	mov    0x8(%ebp),%eax
  800761:	89 45 dc             	mov    %eax,-0x24(%ebp)
  800764:	8b 55 0c             	mov    0xc(%ebp),%edx
  800767:	89 55 e0             	mov    %edx,-0x20(%ebp)
  80076a:	8b 5d 14             	mov    0x14(%ebp),%ebx
  80076d:	8b 7d 18             	mov    0x18(%ebp),%edi
	// first recursively print all preceding (more significant) digits
	if (num >= base) {
  800770:	b8 00 00 00 00       	mov    $0x0,%eax
  800775:	39 d0                	cmp    %edx,%eax
  800777:	72 11                	jb     80078a <_ZL8printnumPFviPvES_yjii+0x3a>
  800779:	8b 4d dc             	mov    -0x24(%ebp),%ecx
  80077c:	39 4d 10             	cmp    %ecx,0x10(%ebp)
  80077f:	76 09                	jbe    80078a <_ZL8printnumPFviPvES_yjii+0x3a>
		printnum(putch, putdat, num / base, base, width - 1, padc);
	} else {
		// print any needed pad characters before first digit
		while (--width > 0)
  800781:	83 eb 01             	sub    $0x1,%ebx
  800784:	85 db                	test   %ebx,%ebx
  800786:	7f 5d                	jg     8007e5 <_ZL8printnumPFviPvES_yjii+0x95>
  800788:	eb 6c                	jmp    8007f6 <_ZL8printnumPFviPvES_yjii+0xa6>
printnum(void (*putch)(int, void*), void *putdat,
	 unsigned long long num, unsigned base, int width, int padc)
{
	// first recursively print all preceding (more significant) digits
	if (num >= base) {
		printnum(putch, putdat, num / base, base, width - 1, padc);
  80078a:	89 7c 24 10          	mov    %edi,0x10(%esp)
  80078e:	83 eb 01             	sub    $0x1,%ebx
  800791:	89 5c 24 0c          	mov    %ebx,0xc(%esp)
  800795:	8b 5d 10             	mov    0x10(%ebp),%ebx
  800798:	89 5c 24 08          	mov    %ebx,0x8(%esp)
  80079c:	8b 44 24 08          	mov    0x8(%esp),%eax
  8007a0:	8b 54 24 0c          	mov    0xc(%esp),%edx
  8007a4:	89 45 d0             	mov    %eax,-0x30(%ebp)
  8007a7:	89 55 d4             	mov    %edx,-0x2c(%ebp)
  8007aa:	c7 44 24 0c 00 00 00 	movl   $0x0,0xc(%esp)
  8007b1:	00 
  8007b2:	8b 55 dc             	mov    -0x24(%ebp),%edx
  8007b5:	89 14 24             	mov    %edx,(%esp)
  8007b8:	8b 4d e0             	mov    -0x20(%ebp),%ecx
  8007bb:	89 4c 24 04          	mov    %ecx,0x4(%esp)
  8007bf:	e8 4c 45 00 00       	call   804d10 <__udivdi3>
  8007c4:	8b 4d d0             	mov    -0x30(%ebp),%ecx
  8007c7:	8b 5d d4             	mov    -0x2c(%ebp),%ebx
  8007ca:	89 4c 24 08          	mov    %ecx,0x8(%esp)
  8007ce:	89 5c 24 0c          	mov    %ebx,0xc(%esp)
  8007d2:	89 04 24             	mov    %eax,(%esp)
  8007d5:	89 54 24 04          	mov    %edx,0x4(%esp)
  8007d9:	89 f2                	mov    %esi,%edx
  8007db:	8b 45 e4             	mov    -0x1c(%ebp),%eax
  8007de:	e8 6d ff ff ff       	call   800750 <_ZL8printnumPFviPvES_yjii>
  8007e3:	eb 11                	jmp    8007f6 <_ZL8printnumPFviPvES_yjii+0xa6>
	} else {
		// print any needed pad characters before first digit
		while (--width > 0)
			putch(padc, putdat);
  8007e5:	89 74 24 04          	mov    %esi,0x4(%esp)
  8007e9:	89 3c 24             	mov    %edi,(%esp)
  8007ec:	ff 55 e4             	call   *-0x1c(%ebp)
	// first recursively print all preceding (more significant) digits
	if (num >= base) {
		printnum(putch, putdat, num / base, base, width - 1, padc);
	} else {
		// print any needed pad characters before first digit
		while (--width > 0)
  8007ef:	83 eb 01             	sub    $0x1,%ebx
  8007f2:	85 db                	test   %ebx,%ebx
  8007f4:	7f ef                	jg     8007e5 <_ZL8printnumPFviPvES_yjii+0x95>
			putch(padc, putdat);
	}

	// then print this (the least significant) digit
	putch("0123456789abcdef"[num % base], putdat);
  8007f6:	89 74 24 04          	mov    %esi,0x4(%esp)
  8007fa:	8b 74 24 04          	mov    0x4(%esp),%esi
  8007fe:	8b 45 10             	mov    0x10(%ebp),%eax
  800801:	89 44 24 08          	mov    %eax,0x8(%esp)
  800805:	c7 44 24 0c 00 00 00 	movl   $0x0,0xc(%esp)
  80080c:	00 
  80080d:	8b 55 dc             	mov    -0x24(%ebp),%edx
  800810:	89 14 24             	mov    %edx,(%esp)
  800813:	8b 4d e0             	mov    -0x20(%ebp),%ecx
  800816:	89 4c 24 04          	mov    %ecx,0x4(%esp)
  80081a:	e8 01 46 00 00       	call   804e20 <__umoddi3>
  80081f:	89 74 24 04          	mov    %esi,0x4(%esp)
  800823:	0f be 80 37 51 80 00 	movsbl 0x805137(%eax),%eax
  80082a:	89 04 24             	mov    %eax,(%esp)
  80082d:	ff 55 e4             	call   *-0x1c(%ebp)
}
  800830:	83 c4 4c             	add    $0x4c,%esp
  800833:	5b                   	pop    %ebx
  800834:	5e                   	pop    %esi
  800835:	5f                   	pop    %edi
  800836:	5d                   	pop    %ebp
  800837:	c3                   	ret    

00800838 <_ZL7getuintPPci>:

// Get an unsigned int of various possible sizes from a varargs list,
// depending on the lflag parameter.
static unsigned long long
getuint(va_list *ap, int lflag)
{
  800838:	55                   	push   %ebp
  800839:	89 e5                	mov    %esp,%ebp
	if (lflag >= 2)
  80083b:	83 fa 01             	cmp    $0x1,%edx
  80083e:	7e 0e                	jle    80084e <_ZL7getuintPPci+0x16>
		return va_arg(*ap, unsigned long long);
  800840:	8b 10                	mov    (%eax),%edx
  800842:	8d 4a 08             	lea    0x8(%edx),%ecx
  800845:	89 08                	mov    %ecx,(%eax)
  800847:	8b 02                	mov    (%edx),%eax
  800849:	8b 52 04             	mov    0x4(%edx),%edx
  80084c:	eb 22                	jmp    800870 <_ZL7getuintPPci+0x38>
	else if (lflag)
  80084e:	85 d2                	test   %edx,%edx
  800850:	74 10                	je     800862 <_ZL7getuintPPci+0x2a>
		return va_arg(*ap, unsigned long);
  800852:	8b 10                	mov    (%eax),%edx
  800854:	8d 4a 04             	lea    0x4(%edx),%ecx
  800857:	89 08                	mov    %ecx,(%eax)
  800859:	8b 02                	mov    (%edx),%eax
  80085b:	ba 00 00 00 00       	mov    $0x0,%edx
  800860:	eb 0e                	jmp    800870 <_ZL7getuintPPci+0x38>
	else
		return va_arg(*ap, unsigned int);
  800862:	8b 10                	mov    (%eax),%edx
  800864:	8d 4a 04             	lea    0x4(%edx),%ecx
  800867:	89 08                	mov    %ecx,(%eax)
  800869:	8b 02                	mov    (%edx),%eax
  80086b:	ba 00 00 00 00       	mov    $0x0,%edx
}
  800870:	5d                   	pop    %ebp
  800871:	c3                   	ret    

00800872 <_ZL11sprintputchiPv>:
	int cnt;
};

static void
sprintputch(int ch, void *ptr)
{
  800872:	55                   	push   %ebp
  800873:	89 e5                	mov    %esp,%ebp
  800875:	8b 45 0c             	mov    0xc(%ebp),%eax
	struct sprintbuf *b = (struct sprintbuf *) ptr;
	b->cnt++;
  800878:	83 40 08 01          	addl   $0x1,0x8(%eax)
	if (b->buf < b->ebuf)
  80087c:	8b 10                	mov    (%eax),%edx
  80087e:	3b 50 04             	cmp    0x4(%eax),%edx
  800881:	73 0a                	jae    80088d <_ZL11sprintputchiPv+0x1b>
		*b->buf++ = ch;
  800883:	8b 4d 08             	mov    0x8(%ebp),%ecx
  800886:	88 0a                	mov    %cl,(%edx)
  800888:	83 c2 01             	add    $0x1,%edx
  80088b:	89 10                	mov    %edx,(%eax)
}
  80088d:	5d                   	pop    %ebp
  80088e:	c3                   	ret    

0080088f <_Z8printfmtPFviPvES_PKcz>:
	}
}

void
printfmt(void (*putch)(int, void*), void *putdat, const char *fmt, ...)
{
  80088f:	55                   	push   %ebp
  800890:	89 e5                	mov    %esp,%ebp
  800892:	83 ec 18             	sub    $0x18,%esp
	va_list ap;

	va_start(ap, fmt);
  800895:	8d 45 14             	lea    0x14(%ebp),%eax
	vprintfmt(putch, putdat, fmt, ap);
  800898:	89 44 24 0c          	mov    %eax,0xc(%esp)
  80089c:	8b 45 10             	mov    0x10(%ebp),%eax
  80089f:	89 44 24 08          	mov    %eax,0x8(%esp)
  8008a3:	8b 45 0c             	mov    0xc(%ebp),%eax
  8008a6:	89 44 24 04          	mov    %eax,0x4(%esp)
  8008aa:	8b 45 08             	mov    0x8(%ebp),%eax
  8008ad:	89 04 24             	mov    %eax,(%esp)
  8008b0:	e8 02 00 00 00       	call   8008b7 <_Z9vprintfmtPFviPvES_PKcPc>
	va_end(ap);
}
  8008b5:	c9                   	leave  
  8008b6:	c3                   	ret    

008008b7 <_Z9vprintfmtPFviPvES_PKcPc>:
// Main function to format and print a string.
void printfmt(void (*putch)(int, void*), void *putdat, const char *fmt, ...);

void
vprintfmt(void (*putch)(int, void*), void *putdat, const char *fmt, va_list ap)
{
  8008b7:	55                   	push   %ebp
  8008b8:	89 e5                	mov    %esp,%ebp
  8008ba:	57                   	push   %edi
  8008bb:	56                   	push   %esi
  8008bc:	53                   	push   %ebx
  8008bd:	83 ec 3c             	sub    $0x3c,%esp
  8008c0:	8b 7d 0c             	mov    0xc(%ebp),%edi
	unsigned long long num;
	int base, lflag, width, precision, altflag;
	char padc;

	while (1) {
		while ((ch = *(unsigned char *) fmt++) != '%') {
  8008c3:	8b 55 10             	mov    0x10(%ebp),%edx
  8008c6:	0f b6 02             	movzbl (%edx),%eax
  8008c9:	89 d3                	mov    %edx,%ebx
  8008cb:	83 c3 01             	add    $0x1,%ebx
  8008ce:	83 f8 25             	cmp    $0x25,%eax
  8008d1:	74 2b                	je     8008fe <_Z9vprintfmtPFviPvES_PKcPc+0x47>
			if (ch == '\0')
  8008d3:	85 c0                	test   %eax,%eax
  8008d5:	75 10                	jne    8008e7 <_Z9vprintfmtPFviPvES_PKcPc+0x30>
  8008d7:	e9 a5 03 00 00       	jmp    800c81 <_Z9vprintfmtPFviPvES_PKcPc+0x3ca>
  8008dc:	85 c0                	test   %eax,%eax
  8008de:	66 90                	xchg   %ax,%ax
  8008e0:	75 08                	jne    8008ea <_Z9vprintfmtPFviPvES_PKcPc+0x33>
  8008e2:	e9 9a 03 00 00       	jmp    800c81 <_Z9vprintfmtPFviPvES_PKcPc+0x3ca>
  8008e7:	8b 75 08             	mov    0x8(%ebp),%esi
				return;
			putch(ch, putdat);
  8008ea:	89 7c 24 04          	mov    %edi,0x4(%esp)
  8008ee:	89 04 24             	mov    %eax,(%esp)
  8008f1:	ff d6                	call   *%esi
	unsigned long long num;
	int base, lflag, width, precision, altflag;
	char padc;

	while (1) {
		while ((ch = *(unsigned char *) fmt++) != '%') {
  8008f3:	0f b6 03             	movzbl (%ebx),%eax
  8008f6:	83 c3 01             	add    $0x1,%ebx
  8008f9:	83 f8 25             	cmp    $0x25,%eax
  8008fc:	75 de                	jne    8008dc <_Z9vprintfmtPFviPvES_PKcPc+0x25>
			precision = va_arg(ap, int);
			goto process_precision;

		case '.':
			if (width < 0)
				width = 0;
  8008fe:	c6 45 e0 20          	movb   $0x20,-0x20(%ebp)
  800902:	c7 45 dc 00 00 00 00 	movl   $0x0,-0x24(%ebp)
  800909:	be ff ff ff ff       	mov    $0xffffffff,%esi
  80090e:	c7 45 e4 ff ff ff ff 	movl   $0xffffffff,-0x1c(%ebp)
  800915:	b9 00 00 00 00       	mov    $0x0,%ecx
  80091a:	89 75 d8             	mov    %esi,-0x28(%ebp)
  80091d:	eb 2b                	jmp    80094a <_Z9vprintfmtPFviPvES_PKcPc+0x93>
		width = -1;
		precision = -1;
		lflag = 0;
		altflag = 0;
	reswitch:
		switch (ch = *(unsigned char *) fmt++) {
  80091f:	8b 5d 10             	mov    0x10(%ebp),%ebx

		// flag to pad on the right
		case '-':
			padc = '-';
  800922:	c6 45 e0 2d          	movb   $0x2d,-0x20(%ebp)
  800926:	eb 22                	jmp    80094a <_Z9vprintfmtPFviPvES_PKcPc+0x93>
		width = -1;
		precision = -1;
		lflag = 0;
		altflag = 0;
	reswitch:
		switch (ch = *(unsigned char *) fmt++) {
  800928:	8b 5d 10             	mov    0x10(%ebp),%ebx
			padc = '-';
			goto reswitch;

		// flag to pad with 0's instead of spaces
		case '0':
			padc = '0';
  80092b:	c6 45 e0 30          	movb   $0x30,-0x20(%ebp)
  80092f:	eb 19                	jmp    80094a <_Z9vprintfmtPFviPvES_PKcPc+0x93>
		width = -1;
		precision = -1;
		lflag = 0;
		altflag = 0;
	reswitch:
		switch (ch = *(unsigned char *) fmt++) {
  800931:	8b 5d 10             	mov    0x10(%ebp),%ebx
			precision = va_arg(ap, int);
			goto process_precision;

		case '.':
			if (width < 0)
				width = 0;
  800934:	c7 45 e4 00 00 00 00 	movl   $0x0,-0x1c(%ebp)
  80093b:	eb 0d                	jmp    80094a <_Z9vprintfmtPFviPvES_PKcPc+0x93>
			altflag = 1;
			goto reswitch;

		process_precision:
			if (width < 0)
				width = precision, precision = -1;
  80093d:	8b 75 d8             	mov    -0x28(%ebp),%esi
  800940:	89 75 e4             	mov    %esi,-0x1c(%ebp)
  800943:	c7 45 d8 ff ff ff ff 	movl   $0xffffffff,-0x28(%ebp)
		width = -1;
		precision = -1;
		lflag = 0;
		altflag = 0;
	reswitch:
		switch (ch = *(unsigned char *) fmt++) {
  80094a:	0f b6 03             	movzbl (%ebx),%eax
  80094d:	0f b6 d0             	movzbl %al,%edx
  800950:	8d 73 01             	lea    0x1(%ebx),%esi
  800953:	89 75 10             	mov    %esi,0x10(%ebp)
  800956:	83 e8 23             	sub    $0x23,%eax
  800959:	3c 55                	cmp    $0x55,%al
  80095b:	0f 87 d8 02 00 00    	ja     800c39 <_Z9vprintfmtPFviPvES_PKcPc+0x382>
  800961:	0f b6 c0             	movzbl %al,%eax
  800964:	ff 24 85 e0 52 80 00 	jmp    *0x8052e0(,%eax,4)
		case '6':
		case '7':
		case '8':
		case '9':
			for (precision = 0; ; ++fmt) {
				precision = precision * 10 + ch - '0';
  80096b:	83 ea 30             	sub    $0x30,%edx
  80096e:	89 55 d8             	mov    %edx,-0x28(%ebp)
				ch = *fmt;
  800971:	8b 55 10             	mov    0x10(%ebp),%edx
  800974:	0f be 02             	movsbl (%edx),%eax
				if (ch < '0' || ch > '9')
  800977:	8d 50 d0             	lea    -0x30(%eax),%edx
		width = -1;
		precision = -1;
		lflag = 0;
		altflag = 0;
	reswitch:
		switch (ch = *(unsigned char *) fmt++) {
  80097a:	8b 5d 10             	mov    0x10(%ebp),%ebx
		case '8':
		case '9':
			for (precision = 0; ; ++fmt) {
				precision = precision * 10 + ch - '0';
				ch = *fmt;
				if (ch < '0' || ch > '9')
  80097d:	83 fa 09             	cmp    $0x9,%edx
  800980:	77 4e                	ja     8009d0 <_Z9vprintfmtPFviPvES_PKcPc+0x119>
		width = -1;
		precision = -1;
		lflag = 0;
		altflag = 0;
	reswitch:
		switch (ch = *(unsigned char *) fmt++) {
  800982:	8b 75 d8             	mov    -0x28(%ebp),%esi
		case '5':
		case '6':
		case '7':
		case '8':
		case '9':
			for (precision = 0; ; ++fmt) {
  800985:	83 c3 01             	add    $0x1,%ebx
				precision = precision * 10 + ch - '0';
  800988:	8d 14 b6             	lea    (%esi,%esi,4),%edx
  80098b:	8d 74 50 d0          	lea    -0x30(%eax,%edx,2),%esi
				ch = *fmt;
  80098f:	0f be 03             	movsbl (%ebx),%eax
				if (ch < '0' || ch > '9')
  800992:	8d 50 d0             	lea    -0x30(%eax),%edx
  800995:	83 fa 09             	cmp    $0x9,%edx
  800998:	76 eb                	jbe    800985 <_Z9vprintfmtPFviPvES_PKcPc+0xce>
  80099a:	89 75 d8             	mov    %esi,-0x28(%ebp)
  80099d:	eb 31                	jmp    8009d0 <_Z9vprintfmtPFviPvES_PKcPc+0x119>
					break;
			}
			goto process_precision;

		case '*':
			precision = va_arg(ap, int);
  80099f:	8b 45 14             	mov    0x14(%ebp),%eax
  8009a2:	8d 50 04             	lea    0x4(%eax),%edx
  8009a5:	89 55 14             	mov    %edx,0x14(%ebp)
  8009a8:	8b 00                	mov    (%eax),%eax
  8009aa:	89 45 d8             	mov    %eax,-0x28(%ebp)
		width = -1;
		precision = -1;
		lflag = 0;
		altflag = 0;
	reswitch:
		switch (ch = *(unsigned char *) fmt++) {
  8009ad:	8b 5d 10             	mov    0x10(%ebp),%ebx
			}
			goto process_precision;

		case '*':
			precision = va_arg(ap, int);
			goto process_precision;
  8009b0:	eb 1e                	jmp    8009d0 <_Z9vprintfmtPFviPvES_PKcPc+0x119>

		case '.':
			if (width < 0)
  8009b2:	83 7d e4 00          	cmpl   $0x0,-0x1c(%ebp)
  8009b6:	0f 88 75 ff ff ff    	js     800931 <_Z9vprintfmtPFviPvES_PKcPc+0x7a>
		width = -1;
		precision = -1;
		lflag = 0;
		altflag = 0;
	reswitch:
		switch (ch = *(unsigned char *) fmt++) {
  8009bc:	8b 5d 10             	mov    0x10(%ebp),%ebx
  8009bf:	eb 89                	jmp    80094a <_Z9vprintfmtPFviPvES_PKcPc+0x93>
  8009c1:	8b 5d 10             	mov    0x10(%ebp),%ebx
			if (width < 0)
				width = 0;
			goto reswitch;

		case '#':
			altflag = 1;
  8009c4:	c7 45 dc 01 00 00 00 	movl   $0x1,-0x24(%ebp)
			goto reswitch;
  8009cb:	e9 7a ff ff ff       	jmp    80094a <_Z9vprintfmtPFviPvES_PKcPc+0x93>

		process_precision:
			if (width < 0)
  8009d0:	83 7d e4 00          	cmpl   $0x0,-0x1c(%ebp)
  8009d4:	0f 89 70 ff ff ff    	jns    80094a <_Z9vprintfmtPFviPvES_PKcPc+0x93>
  8009da:	e9 5e ff ff ff       	jmp    80093d <_Z9vprintfmtPFviPvES_PKcPc+0x86>
				width = precision, precision = -1;
			goto reswitch;

		// long flag (doubled for long long)
		case 'l':
			lflag++;
  8009df:	83 c1 01             	add    $0x1,%ecx
		width = -1;
		precision = -1;
		lflag = 0;
		altflag = 0;
	reswitch:
		switch (ch = *(unsigned char *) fmt++) {
  8009e2:	8b 5d 10             	mov    0x10(%ebp),%ebx
  8009e5:	e9 60 ff ff ff       	jmp    80094a <_Z9vprintfmtPFviPvES_PKcPc+0x93>
			lflag++;
			goto reswitch;

		// character
		case 'c':
			putch(va_arg(ap, int), putdat);
  8009ea:	8b 45 14             	mov    0x14(%ebp),%eax
  8009ed:	8d 50 04             	lea    0x4(%eax),%edx
  8009f0:	89 55 14             	mov    %edx,0x14(%ebp)
  8009f3:	89 7c 24 04          	mov    %edi,0x4(%esp)
  8009f7:	8b 00                	mov    (%eax),%eax
  8009f9:	89 04 24             	mov    %eax,(%esp)
  8009fc:	ff 55 08             	call   *0x8(%ebp)
			break;
  8009ff:	e9 bf fe ff ff       	jmp    8008c3 <_Z9vprintfmtPFviPvES_PKcPc+0xc>

		// error message
		case 'e':
			err = va_arg(ap, int);
  800a04:	8b 45 14             	mov    0x14(%ebp),%eax
  800a07:	8d 50 04             	lea    0x4(%eax),%edx
  800a0a:	89 55 14             	mov    %edx,0x14(%ebp)
  800a0d:	8b 00                	mov    (%eax),%eax
  800a0f:	89 c2                	mov    %eax,%edx
  800a11:	c1 fa 1f             	sar    $0x1f,%edx
  800a14:	31 d0                	xor    %edx,%eax
  800a16:	29 d0                	sub    %edx,%eax
			if (err < 0)
				err = -err;
			if (err > MAXERROR || (p = error_string[err]) == NULL)
  800a18:	83 f8 14             	cmp    $0x14,%eax
  800a1b:	7f 0f                	jg     800a2c <_Z9vprintfmtPFviPvES_PKcPc+0x175>
  800a1d:	8b 14 85 40 54 80 00 	mov    0x805440(,%eax,4),%edx
  800a24:	85 d2                	test   %edx,%edx
  800a26:	0f 85 35 02 00 00    	jne    800c61 <_Z9vprintfmtPFviPvES_PKcPc+0x3aa>
				printfmt(putch, putdat, "error %d", err);
  800a2c:	89 44 24 0c          	mov    %eax,0xc(%esp)
  800a30:	c7 44 24 08 4f 51 80 	movl   $0x80514f,0x8(%esp)
  800a37:	00 
  800a38:	89 7c 24 04          	mov    %edi,0x4(%esp)
  800a3c:	8b 75 08             	mov    0x8(%ebp),%esi
  800a3f:	89 34 24             	mov    %esi,(%esp)
  800a42:	e8 48 fe ff ff       	call   80088f <_Z8printfmtPFviPvES_PKcz>
  800a47:	e9 77 fe ff ff       	jmp    8008c3 <_Z9vprintfmtPFviPvES_PKcPc+0xc>
  800a4c:	8b 75 d8             	mov    -0x28(%ebp),%esi
		width = -1;
		precision = -1;
		lflag = 0;
		altflag = 0;
	reswitch:
		switch (ch = *(unsigned char *) fmt++) {
  800a4f:	8b 45 e4             	mov    -0x1c(%ebp),%eax
  800a52:	89 45 d8             	mov    %eax,-0x28(%ebp)
				printfmt(putch, putdat, "%s", p);
			break;

		// string
		case 's':
			if ((p = va_arg(ap, char *)) == NULL)
  800a55:	8b 45 14             	mov    0x14(%ebp),%eax
  800a58:	8d 50 04             	lea    0x4(%eax),%edx
  800a5b:	89 55 14             	mov    %edx,0x14(%ebp)
  800a5e:	8b 18                	mov    (%eax),%ebx
				p = "(null)";
  800a60:	85 db                	test   %ebx,%ebx
  800a62:	ba 48 51 80 00       	mov    $0x805148,%edx
  800a67:	0f 44 da             	cmove  %edx,%ebx
			if (width > 0 && padc != '-')
  800a6a:	83 7d d8 00          	cmpl   $0x0,-0x28(%ebp)
  800a6e:	7e 72                	jle    800ae2 <_Z9vprintfmtPFviPvES_PKcPc+0x22b>
  800a70:	80 7d e0 2d          	cmpb   $0x2d,-0x20(%ebp)
  800a74:	74 6c                	je     800ae2 <_Z9vprintfmtPFviPvES_PKcPc+0x22b>
				for (width -= strnlen(p, precision); width > 0; width--)
  800a76:	89 74 24 04          	mov    %esi,0x4(%esp)
  800a7a:	89 1c 24             	mov    %ebx,(%esp)
  800a7d:	e8 a9 02 00 00       	call   800d2b <_Z7strnlenPKcj>
  800a82:	8b 55 d8             	mov    -0x28(%ebp),%edx
  800a85:	29 c2                	sub    %eax,%edx
  800a87:	89 55 e4             	mov    %edx,-0x1c(%ebp)
  800a8a:	85 d2                	test   %edx,%edx
  800a8c:	7e 54                	jle    800ae2 <_Z9vprintfmtPFviPvES_PKcPc+0x22b>
					putch(padc, putdat);
  800a8e:	0f be 45 e0          	movsbl -0x20(%ebp),%eax
  800a92:	89 5d d8             	mov    %ebx,-0x28(%ebp)
  800a95:	89 d3                	mov    %edx,%ebx
  800a97:	89 75 e4             	mov    %esi,-0x1c(%ebp)
  800a9a:	89 c6                	mov    %eax,%esi
  800a9c:	89 7c 24 04          	mov    %edi,0x4(%esp)
  800aa0:	89 34 24             	mov    %esi,(%esp)
  800aa3:	ff 55 08             	call   *0x8(%ebp)
		// string
		case 's':
			if ((p = va_arg(ap, char *)) == NULL)
				p = "(null)";
			if (width > 0 && padc != '-')
				for (width -= strnlen(p, precision); width > 0; width--)
  800aa6:	83 eb 01             	sub    $0x1,%ebx
  800aa9:	85 db                	test   %ebx,%ebx
  800aab:	7f ef                	jg     800a9c <_Z9vprintfmtPFviPvES_PKcPc+0x1e5>
  800aad:	8b 5d d8             	mov    -0x28(%ebp),%ebx
  800ab0:	8b 75 e4             	mov    -0x1c(%ebp),%esi
  800ab3:	c7 45 e4 00 00 00 00 	movl   $0x0,-0x1c(%ebp)
  800aba:	eb 26                	jmp    800ae2 <_Z9vprintfmtPFviPvES_PKcPc+0x22b>
					putch(padc, putdat);
			for (; (ch = *p++) != '\0' && (precision < 0 || --precision >= 0); width--)
				if (altflag && (ch < ' ' || ch > '~'))
  800abc:	8d 50 e0             	lea    -0x20(%eax),%edx
  800abf:	83 fa 5e             	cmp    $0x5e,%edx
  800ac2:	76 10                	jbe    800ad4 <_Z9vprintfmtPFviPvES_PKcPc+0x21d>
					putch('?', putdat);
  800ac4:	89 7c 24 04          	mov    %edi,0x4(%esp)
  800ac8:	c7 04 24 3f 00 00 00 	movl   $0x3f,(%esp)
  800acf:	ff 55 08             	call   *0x8(%ebp)
  800ad2:	eb 0a                	jmp    800ade <_Z9vprintfmtPFviPvES_PKcPc+0x227>
				else
					putch(ch, putdat);
  800ad4:	89 7c 24 04          	mov    %edi,0x4(%esp)
  800ad8:	89 04 24             	mov    %eax,(%esp)
  800adb:	ff 55 08             	call   *0x8(%ebp)
			if ((p = va_arg(ap, char *)) == NULL)
				p = "(null)";
			if (width > 0 && padc != '-')
				for (width -= strnlen(p, precision); width > 0; width--)
					putch(padc, putdat);
			for (; (ch = *p++) != '\0' && (precision < 0 || --precision >= 0); width--)
  800ade:	83 6d e4 01          	subl   $0x1,-0x1c(%ebp)
  800ae2:	0f be 03             	movsbl (%ebx),%eax
  800ae5:	83 c3 01             	add    $0x1,%ebx
  800ae8:	85 c0                	test   %eax,%eax
  800aea:	74 11                	je     800afd <_Z9vprintfmtPFviPvES_PKcPc+0x246>
  800aec:	85 f6                	test   %esi,%esi
  800aee:	78 05                	js     800af5 <_Z9vprintfmtPFviPvES_PKcPc+0x23e>
  800af0:	83 ee 01             	sub    $0x1,%esi
  800af3:	78 0d                	js     800b02 <_Z9vprintfmtPFviPvES_PKcPc+0x24b>
				if (altflag && (ch < ' ' || ch > '~'))
  800af5:	83 7d dc 00          	cmpl   $0x0,-0x24(%ebp)
  800af9:	75 c1                	jne    800abc <_Z9vprintfmtPFviPvES_PKcPc+0x205>
  800afb:	eb d7                	jmp    800ad4 <_Z9vprintfmtPFviPvES_PKcPc+0x21d>
			if ((p = va_arg(ap, char *)) == NULL)
				p = "(null)";
			if (width > 0 && padc != '-')
				for (width -= strnlen(p, precision); width > 0; width--)
					putch(padc, putdat);
			for (; (ch = *p++) != '\0' && (precision < 0 || --precision >= 0); width--)
  800afd:	8b 45 e4             	mov    -0x1c(%ebp),%eax
  800b00:	eb 03                	jmp    800b05 <_Z9vprintfmtPFviPvES_PKcPc+0x24e>
  800b02:	8b 45 e4             	mov    -0x1c(%ebp),%eax
				if (altflag && (ch < ' ' || ch > '~'))
					putch('?', putdat);
				else
					putch(ch, putdat);
			for (; width > 0; width--)
  800b05:	85 c0                	test   %eax,%eax
  800b07:	0f 8e b6 fd ff ff    	jle    8008c3 <_Z9vprintfmtPFviPvES_PKcPc+0xc>
  800b0d:	8b 5d e4             	mov    -0x1c(%ebp),%ebx
  800b10:	8b 75 08             	mov    0x8(%ebp),%esi
				putch(' ', putdat);
  800b13:	89 7c 24 04          	mov    %edi,0x4(%esp)
  800b17:	c7 04 24 20 00 00 00 	movl   $0x20,(%esp)
  800b1e:	ff d6                	call   *%esi
			for (; (ch = *p++) != '\0' && (precision < 0 || --precision >= 0); width--)
				if (altflag && (ch < ' ' || ch > '~'))
					putch('?', putdat);
				else
					putch(ch, putdat);
			for (; width > 0; width--)
  800b20:	83 eb 01             	sub    $0x1,%ebx
  800b23:	85 db                	test   %ebx,%ebx
  800b25:	7f ec                	jg     800b13 <_Z9vprintfmtPFviPvES_PKcPc+0x25c>
  800b27:	e9 97 fd ff ff       	jmp    8008c3 <_Z9vprintfmtPFviPvES_PKcPc+0xc>
// Same as getuint but signed - can't use getuint
// because of sign extension
static long long
getint(va_list *ap, int lflag)
{
	if (lflag >= 2)
  800b2c:	83 f9 01             	cmp    $0x1,%ecx
  800b2f:	90                   	nop
  800b30:	7e 10                	jle    800b42 <_Z9vprintfmtPFviPvES_PKcPc+0x28b>
		return va_arg(*ap, long long);
  800b32:	8b 45 14             	mov    0x14(%ebp),%eax
  800b35:	8d 50 08             	lea    0x8(%eax),%edx
  800b38:	89 55 14             	mov    %edx,0x14(%ebp)
  800b3b:	8b 18                	mov    (%eax),%ebx
  800b3d:	8b 70 04             	mov    0x4(%eax),%esi
  800b40:	eb 26                	jmp    800b68 <_Z9vprintfmtPFviPvES_PKcPc+0x2b1>
	else if (lflag)
  800b42:	85 c9                	test   %ecx,%ecx
  800b44:	74 12                	je     800b58 <_Z9vprintfmtPFviPvES_PKcPc+0x2a1>
		return va_arg(*ap, long);
  800b46:	8b 45 14             	mov    0x14(%ebp),%eax
  800b49:	8d 50 04             	lea    0x4(%eax),%edx
  800b4c:	89 55 14             	mov    %edx,0x14(%ebp)
  800b4f:	8b 18                	mov    (%eax),%ebx
  800b51:	89 de                	mov    %ebx,%esi
  800b53:	c1 fe 1f             	sar    $0x1f,%esi
  800b56:	eb 10                	jmp    800b68 <_Z9vprintfmtPFviPvES_PKcPc+0x2b1>
	else
		return va_arg(*ap, int);
  800b58:	8b 45 14             	mov    0x14(%ebp),%eax
  800b5b:	8d 50 04             	lea    0x4(%eax),%edx
  800b5e:	89 55 14             	mov    %edx,0x14(%ebp)
  800b61:	8b 18                	mov    (%eax),%ebx
  800b63:	89 de                	mov    %ebx,%esi
  800b65:	c1 fe 1f             	sar    $0x1f,%esi
			num = getint(&ap, lflag);
			if ((long long) num < 0) {
				putch('-', putdat);
				num = -(long long) num;
			}
			base = 10;
  800b68:	b8 0a 00 00 00       	mov    $0xa,%eax
			break;

		// (signed) decimal
		case 'd':
			num = getint(&ap, lflag);
			if ((long long) num < 0) {
  800b6d:	85 f6                	test   %esi,%esi
  800b6f:	0f 89 8c 00 00 00    	jns    800c01 <_Z9vprintfmtPFviPvES_PKcPc+0x34a>
				putch('-', putdat);
  800b75:	89 7c 24 04          	mov    %edi,0x4(%esp)
  800b79:	c7 04 24 2d 00 00 00 	movl   $0x2d,(%esp)
  800b80:	ff 55 08             	call   *0x8(%ebp)
				num = -(long long) num;
  800b83:	f7 db                	neg    %ebx
  800b85:	83 d6 00             	adc    $0x0,%esi
  800b88:	f7 de                	neg    %esi
			}
			base = 10;
  800b8a:	b8 0a 00 00 00       	mov    $0xa,%eax
  800b8f:	eb 70                	jmp    800c01 <_Z9vprintfmtPFviPvES_PKcPc+0x34a>
			goto number;

		// unsigned decimal
		case 'u':
			num = getuint(&ap, lflag);
  800b91:	89 ca                	mov    %ecx,%edx
  800b93:	8d 45 14             	lea    0x14(%ebp),%eax
  800b96:	e8 9d fc ff ff       	call   800838 <_ZL7getuintPPci>
  800b9b:	89 c3                	mov    %eax,%ebx
  800b9d:	89 d6                	mov    %edx,%esi
			base = 10;
  800b9f:	b8 0a 00 00 00       	mov    $0xa,%eax
			goto number;
  800ba4:	eb 5b                	jmp    800c01 <_Z9vprintfmtPFviPvES_PKcPc+0x34a>

		// (unsigned) octal
		case 'o':
			num = getuint(&ap, lflag);
  800ba6:	89 ca                	mov    %ecx,%edx
  800ba8:	8d 45 14             	lea    0x14(%ebp),%eax
  800bab:	e8 88 fc ff ff       	call   800838 <_ZL7getuintPPci>
  800bb0:	89 c3                	mov    %eax,%ebx
  800bb2:	89 d6                	mov    %edx,%esi
			base = 8;
  800bb4:	b8 08 00 00 00       	mov    $0x8,%eax
			goto number;
  800bb9:	eb 46                	jmp    800c01 <_Z9vprintfmtPFviPvES_PKcPc+0x34a>

		// pointer
		case 'p':
			putch('0', putdat);
  800bbb:	89 7c 24 04          	mov    %edi,0x4(%esp)
  800bbf:	c7 04 24 30 00 00 00 	movl   $0x30,(%esp)
  800bc6:	ff 55 08             	call   *0x8(%ebp)
			putch('x', putdat);
  800bc9:	89 7c 24 04          	mov    %edi,0x4(%esp)
  800bcd:	c7 04 24 78 00 00 00 	movl   $0x78,(%esp)
  800bd4:	ff 55 08             	call   *0x8(%ebp)
			num = (unsigned long long)
				(uintptr_t) va_arg(ap, void *);
  800bd7:	8b 45 14             	mov    0x14(%ebp),%eax
  800bda:	8d 50 04             	lea    0x4(%eax),%edx
  800bdd:	89 55 14             	mov    %edx,0x14(%ebp)
  800be0:	8b 18                	mov    (%eax),%ebx
  800be2:	be 00 00 00 00       	mov    $0x0,%esi
			base = 16;
  800be7:	b8 10 00 00 00       	mov    $0x10,%eax
			goto number;
  800bec:	eb 13                	jmp    800c01 <_Z9vprintfmtPFviPvES_PKcPc+0x34a>

		// (unsigned) hexadecimal
		case 'x':
			num = getuint(&ap, lflag);
  800bee:	89 ca                	mov    %ecx,%edx
  800bf0:	8d 45 14             	lea    0x14(%ebp),%eax
  800bf3:	e8 40 fc ff ff       	call   800838 <_ZL7getuintPPci>
  800bf8:	89 c3                	mov    %eax,%ebx
  800bfa:	89 d6                	mov    %edx,%esi
			base = 16;
  800bfc:	b8 10 00 00 00       	mov    $0x10,%eax
		number:
			printnum(putch, putdat, num, base, width, padc);
  800c01:	0f be 55 e0          	movsbl -0x20(%ebp),%edx
  800c05:	89 54 24 10          	mov    %edx,0x10(%esp)
  800c09:	8b 55 e4             	mov    -0x1c(%ebp),%edx
  800c0c:	89 54 24 0c          	mov    %edx,0xc(%esp)
  800c10:	89 44 24 08          	mov    %eax,0x8(%esp)
  800c14:	89 1c 24             	mov    %ebx,(%esp)
  800c17:	89 74 24 04          	mov    %esi,0x4(%esp)
  800c1b:	89 fa                	mov    %edi,%edx
  800c1d:	8b 45 08             	mov    0x8(%ebp),%eax
  800c20:	e8 2b fb ff ff       	call   800750 <_ZL8printnumPFviPvES_yjii>
			break;
  800c25:	e9 99 fc ff ff       	jmp    8008c3 <_Z9vprintfmtPFviPvES_PKcPc+0xc>

		// escaped '%' character
		case '%':
			putch(ch, putdat);
  800c2a:	89 7c 24 04          	mov    %edi,0x4(%esp)
  800c2e:	89 14 24             	mov    %edx,(%esp)
  800c31:	ff 55 08             	call   *0x8(%ebp)
			break;
  800c34:	e9 8a fc ff ff       	jmp    8008c3 <_Z9vprintfmtPFviPvES_PKcPc+0xc>

		// unrecognized escape sequence - just print it literally
		default:
			putch('%', putdat);
  800c39:	89 7c 24 04          	mov    %edi,0x4(%esp)
  800c3d:	c7 04 24 25 00 00 00 	movl   $0x25,(%esp)
  800c44:	ff 55 08             	call   *0x8(%ebp)
			for (fmt--; fmt[-1] != '%'; fmt--)
  800c47:	89 5d 10             	mov    %ebx,0x10(%ebp)
  800c4a:	89 d8                	mov    %ebx,%eax
  800c4c:	eb 02                	jmp    800c50 <_Z9vprintfmtPFviPvES_PKcPc+0x399>
  800c4e:	89 d0                	mov    %edx,%eax
  800c50:	8d 50 ff             	lea    -0x1(%eax),%edx
  800c53:	80 78 ff 25          	cmpb   $0x25,-0x1(%eax)
  800c57:	75 f5                	jne    800c4e <_Z9vprintfmtPFviPvES_PKcPc+0x397>
  800c59:	89 45 10             	mov    %eax,0x10(%ebp)
  800c5c:	e9 62 fc ff ff       	jmp    8008c3 <_Z9vprintfmtPFviPvES_PKcPc+0xc>
			if (err < 0)
				err = -err;
			if (err > MAXERROR || (p = error_string[err]) == NULL)
				printfmt(putch, putdat, "error %d", err);
			else
				printfmt(putch, putdat, "%s", p);
  800c61:	89 54 24 0c          	mov    %edx,0xc(%esp)
  800c65:	c7 44 24 08 88 55 80 	movl   $0x805588,0x8(%esp)
  800c6c:	00 
  800c6d:	89 7c 24 04          	mov    %edi,0x4(%esp)
  800c71:	8b 75 08             	mov    0x8(%ebp),%esi
  800c74:	89 34 24             	mov    %esi,(%esp)
  800c77:	e8 13 fc ff ff       	call   80088f <_Z8printfmtPFviPvES_PKcz>
  800c7c:	e9 42 fc ff ff       	jmp    8008c3 <_Z9vprintfmtPFviPvES_PKcPc+0xc>
			for (fmt--; fmt[-1] != '%'; fmt--)
				/* do nothing */;
			break;
		}
	}
}
  800c81:	83 c4 3c             	add    $0x3c,%esp
  800c84:	5b                   	pop    %ebx
  800c85:	5e                   	pop    %esi
  800c86:	5f                   	pop    %edi
  800c87:	5d                   	pop    %ebp
  800c88:	c3                   	ret    

00800c89 <_Z9vsnprintfPciPKcS_>:
		*b->buf++ = ch;
}

int
vsnprintf(char *buf, int n, const char *fmt, va_list ap)
{
  800c89:	55                   	push   %ebp
  800c8a:	89 e5                	mov    %esp,%ebp
  800c8c:	83 ec 28             	sub    $0x28,%esp
  800c8f:	8b 45 08             	mov    0x8(%ebp),%eax
  800c92:	8b 55 0c             	mov    0xc(%ebp),%edx
	struct sprintbuf b = {buf, buf+n-1, 0};
  800c95:	c7 45 f4 00 00 00 00 	movl   $0x0,-0xc(%ebp)
  800c9c:	89 45 ec             	mov    %eax,-0x14(%ebp)
  800c9f:	8d 4c 10 ff          	lea    -0x1(%eax,%edx,1),%ecx
  800ca3:	89 4d f0             	mov    %ecx,-0x10(%ebp)

	if (buf == NULL || n < 1)
  800ca6:	85 c0                	test   %eax,%eax
  800ca8:	74 30                	je     800cda <_Z9vsnprintfPciPKcS_+0x51>
  800caa:	85 d2                	test   %edx,%edx
  800cac:	7e 2c                	jle    800cda <_Z9vsnprintfPciPKcS_+0x51>
		return -E_INVAL;

	// print the string to the buffer
	vprintfmt(sprintputch, &b, fmt, ap);
  800cae:	8b 45 14             	mov    0x14(%ebp),%eax
  800cb1:	89 44 24 0c          	mov    %eax,0xc(%esp)
  800cb5:	8b 45 10             	mov    0x10(%ebp),%eax
  800cb8:	89 44 24 08          	mov    %eax,0x8(%esp)
  800cbc:	8d 45 ec             	lea    -0x14(%ebp),%eax
  800cbf:	89 44 24 04          	mov    %eax,0x4(%esp)
  800cc3:	c7 04 24 72 08 80 00 	movl   $0x800872,(%esp)
  800cca:	e8 e8 fb ff ff       	call   8008b7 <_Z9vprintfmtPFviPvES_PKcPc>

	// null terminate the buffer
	*b.buf = '\0';
  800ccf:	8b 45 ec             	mov    -0x14(%ebp),%eax
  800cd2:	c6 00 00             	movb   $0x0,(%eax)

	return b.cnt;
  800cd5:	8b 45 f4             	mov    -0xc(%ebp),%eax
  800cd8:	eb 05                	jmp    800cdf <_Z9vsnprintfPciPKcS_+0x56>
vsnprintf(char *buf, int n, const char *fmt, va_list ap)
{
	struct sprintbuf b = {buf, buf+n-1, 0};

	if (buf == NULL || n < 1)
		return -E_INVAL;
  800cda:	b8 fd ff ff ff       	mov    $0xfffffffd,%eax

	// null terminate the buffer
	*b.buf = '\0';

	return b.cnt;
}
  800cdf:	c9                   	leave  
  800ce0:	c3                   	ret    

00800ce1 <_Z8snprintfPciPKcz>:

int
snprintf(char *buf, int n, const char *fmt, ...)
{
  800ce1:	55                   	push   %ebp
  800ce2:	89 e5                	mov    %esp,%ebp
  800ce4:	83 ec 18             	sub    $0x18,%esp
	va_list ap;
	int rc;

	va_start(ap, fmt);
  800ce7:	8d 45 14             	lea    0x14(%ebp),%eax
	rc = vsnprintf(buf, n, fmt, ap);
  800cea:	89 44 24 0c          	mov    %eax,0xc(%esp)
  800cee:	8b 45 10             	mov    0x10(%ebp),%eax
  800cf1:	89 44 24 08          	mov    %eax,0x8(%esp)
  800cf5:	8b 45 0c             	mov    0xc(%ebp),%eax
  800cf8:	89 44 24 04          	mov    %eax,0x4(%esp)
  800cfc:	8b 45 08             	mov    0x8(%ebp),%eax
  800cff:	89 04 24             	mov    %eax,(%esp)
  800d02:	e8 82 ff ff ff       	call   800c89 <_Z9vsnprintfPciPKcS_>
	va_end(ap);

	return rc;
}
  800d07:	c9                   	leave  
  800d08:	c3                   	ret    
  800d09:	00 00                	add    %al,(%eax)
  800d0b:	00 00                	add    %al,(%eax)
  800d0d:	00 00                	add    %al,(%eax)
	...

00800d10 <_Z6strlenPKc>:
// Primespipe runs 3x faster this way.
#define ASM 1

int
strlen(const char *s)
{
  800d10:	55                   	push   %ebp
  800d11:	89 e5                	mov    %esp,%ebp
  800d13:	8b 55 08             	mov    0x8(%ebp),%edx
	int n;

	for (n = 0; *s != '\0'; s++)
  800d16:	b8 00 00 00 00       	mov    $0x0,%eax
  800d1b:	80 3a 00             	cmpb   $0x0,(%edx)
  800d1e:	74 09                	je     800d29 <_Z6strlenPKc+0x19>
		n++;
  800d20:	83 c0 01             	add    $0x1,%eax
int
strlen(const char *s)
{
	int n;

	for (n = 0; *s != '\0'; s++)
  800d23:	80 3c 02 00          	cmpb   $0x0,(%edx,%eax,1)
  800d27:	75 f7                	jne    800d20 <_Z6strlenPKc+0x10>
		n++;
	return n;
}
  800d29:	5d                   	pop    %ebp
  800d2a:	c3                   	ret    

00800d2b <_Z7strnlenPKcj>:

int
strnlen(const char *s, size_t size)
{
  800d2b:	55                   	push   %ebp
  800d2c:	89 e5                	mov    %esp,%ebp
  800d2e:	8b 4d 08             	mov    0x8(%ebp),%ecx
  800d31:	8b 55 0c             	mov    0xc(%ebp),%edx
	int n;

	for (n = 0; size > 0 && *s != '\0'; s++, size--)
  800d34:	b8 00 00 00 00       	mov    $0x0,%eax
  800d39:	39 c2                	cmp    %eax,%edx
  800d3b:	74 0b                	je     800d48 <_Z7strnlenPKcj+0x1d>
  800d3d:	80 3c 01 00          	cmpb   $0x0,(%ecx,%eax,1)
  800d41:	74 05                	je     800d48 <_Z7strnlenPKcj+0x1d>
		n++;
  800d43:	83 c0 01             	add    $0x1,%eax
  800d46:	eb f1                	jmp    800d39 <_Z7strnlenPKcj+0xe>
	return n;
}
  800d48:	5d                   	pop    %ebp
  800d49:	c3                   	ret    

00800d4a <_Z6strcpyPcPKc>:

char *
strcpy(char *dst, const char *src)
{
  800d4a:	55                   	push   %ebp
  800d4b:	89 e5                	mov    %esp,%ebp
  800d4d:	53                   	push   %ebx
  800d4e:	8b 45 08             	mov    0x8(%ebp),%eax
  800d51:	8b 5d 0c             	mov    0xc(%ebp),%ebx
	char *ret = dst;

	while ((*dst++ = *src++) != '\0')
  800d54:	ba 00 00 00 00       	mov    $0x0,%edx
  800d59:	0f b6 0c 13          	movzbl (%ebx,%edx,1),%ecx
  800d5d:	88 0c 10             	mov    %cl,(%eax,%edx,1)
  800d60:	83 c2 01             	add    $0x1,%edx
  800d63:	84 c9                	test   %cl,%cl
  800d65:	75 f2                	jne    800d59 <_Z6strcpyPcPKc+0xf>
		/* do nothing */;
	return ret;
}
  800d67:	5b                   	pop    %ebx
  800d68:	5d                   	pop    %ebp
  800d69:	c3                   	ret    

00800d6a <_Z7strncpyPcPKcj>:

char *
strncpy(char *dst, const char *src, size_t size)
{
  800d6a:	55                   	push   %ebp
  800d6b:	89 e5                	mov    %esp,%ebp
  800d6d:	56                   	push   %esi
  800d6e:	53                   	push   %ebx
  800d6f:	8b 45 08             	mov    0x8(%ebp),%eax
  800d72:	8b 55 0c             	mov    0xc(%ebp),%edx
  800d75:	8b 75 10             	mov    0x10(%ebp),%esi
	size_t i;
	char *ret = dst;

	for (i = 0; i < size; i++) {
  800d78:	85 f6                	test   %esi,%esi
  800d7a:	74 18                	je     800d94 <_Z7strncpyPcPKcj+0x2a>
  800d7c:	b9 00 00 00 00       	mov    $0x0,%ecx
		*dst++ = *src;
  800d81:	0f b6 1a             	movzbl (%edx),%ebx
  800d84:	88 1c 08             	mov    %bl,(%eax,%ecx,1)
		// If strlen(src) < size, null-pad 'dst' out to 'size' chars
		if (*src != '\0')
			src++;
  800d87:	80 3a 01             	cmpb   $0x1,(%edx)
  800d8a:	83 da ff             	sbb    $0xffffffff,%edx
strncpy(char *dst, const char *src, size_t size)
{
	size_t i;
	char *ret = dst;

	for (i = 0; i < size; i++) {
  800d8d:	83 c1 01             	add    $0x1,%ecx
  800d90:	39 ce                	cmp    %ecx,%esi
  800d92:	77 ed                	ja     800d81 <_Z7strncpyPcPKcj+0x17>
		// If strlen(src) < size, null-pad 'dst' out to 'size' chars
		if (*src != '\0')
			src++;
	}
	return ret;
}
  800d94:	5b                   	pop    %ebx
  800d95:	5e                   	pop    %esi
  800d96:	5d                   	pop    %ebp
  800d97:	c3                   	ret    

00800d98 <_Z7strlcpyPcPKcj>:

size_t
strlcpy(char *dst, const char *src, size_t size)
{
  800d98:	55                   	push   %ebp
  800d99:	89 e5                	mov    %esp,%ebp
  800d9b:	56                   	push   %esi
  800d9c:	53                   	push   %ebx
  800d9d:	8b 75 08             	mov    0x8(%ebp),%esi
  800da0:	8b 4d 0c             	mov    0xc(%ebp),%ecx
  800da3:	8b 55 10             	mov    0x10(%ebp),%edx
	char *dst_in = dst;

	if (size > 0) {
  800da6:	89 f0                	mov    %esi,%eax
  800da8:	85 d2                	test   %edx,%edx
  800daa:	74 17                	je     800dc3 <_Z7strlcpyPcPKcj+0x2b>
		while (--size > 0 && *src != '\0')
  800dac:	83 ea 01             	sub    $0x1,%edx
  800daf:	74 18                	je     800dc9 <_Z7strlcpyPcPKcj+0x31>
  800db1:	80 39 00             	cmpb   $0x0,(%ecx)
  800db4:	74 17                	je     800dcd <_Z7strlcpyPcPKcj+0x35>
			*dst++ = *src++;
  800db6:	0f b6 19             	movzbl (%ecx),%ebx
  800db9:	88 18                	mov    %bl,(%eax)
  800dbb:	83 c0 01             	add    $0x1,%eax
  800dbe:	83 c1 01             	add    $0x1,%ecx
  800dc1:	eb e9                	jmp    800dac <_Z7strlcpyPcPKcj+0x14>
		*dst = '\0';
	}
	return dst - dst_in;
  800dc3:	29 f0                	sub    %esi,%eax
}
  800dc5:	5b                   	pop    %ebx
  800dc6:	5e                   	pop    %esi
  800dc7:	5d                   	pop    %ebp
  800dc8:	c3                   	ret    
strlcpy(char *dst, const char *src, size_t size)
{
	char *dst_in = dst;

	if (size > 0) {
		while (--size > 0 && *src != '\0')
  800dc9:	89 c2                	mov    %eax,%edx
  800dcb:	eb 02                	jmp    800dcf <_Z7strlcpyPcPKcj+0x37>
  800dcd:	89 c2                	mov    %eax,%edx
			*dst++ = *src++;
		*dst = '\0';
  800dcf:	c6 02 00             	movb   $0x0,(%edx)
  800dd2:	eb ef                	jmp    800dc3 <_Z7strlcpyPcPKcj+0x2b>

00800dd4 <_Z6strcmpPKcS0_>:
	return dst - dst_in;
}

int
strcmp(const char *p, const char *q)
{
  800dd4:	55                   	push   %ebp
  800dd5:	89 e5                	mov    %esp,%ebp
  800dd7:	8b 4d 08             	mov    0x8(%ebp),%ecx
  800dda:	8b 55 0c             	mov    0xc(%ebp),%edx
	while (*p && *p == *q)
  800ddd:	0f b6 01             	movzbl (%ecx),%eax
  800de0:	84 c0                	test   %al,%al
  800de2:	74 0c                	je     800df0 <_Z6strcmpPKcS0_+0x1c>
  800de4:	3a 02                	cmp    (%edx),%al
  800de6:	75 08                	jne    800df0 <_Z6strcmpPKcS0_+0x1c>
		p++, q++;
  800de8:	83 c1 01             	add    $0x1,%ecx
  800deb:	83 c2 01             	add    $0x1,%edx
  800dee:	eb ed                	jmp    800ddd <_Z6strcmpPKcS0_+0x9>
	return (unsigned char) *p - (unsigned char) *q;
  800df0:	0f b6 c0             	movzbl %al,%eax
  800df3:	0f b6 12             	movzbl (%edx),%edx
  800df6:	29 d0                	sub    %edx,%eax
}
  800df8:	5d                   	pop    %ebp
  800df9:	c3                   	ret    

00800dfa <_Z7strncmpPKcS0_j>:

int
strncmp(const char *p, const char *q, size_t n)
{
  800dfa:	55                   	push   %ebp
  800dfb:	89 e5                	mov    %esp,%ebp
  800dfd:	53                   	push   %ebx
  800dfe:	8b 4d 08             	mov    0x8(%ebp),%ecx
  800e01:	8b 5d 0c             	mov    0xc(%ebp),%ebx
  800e04:	8b 55 10             	mov    0x10(%ebp),%edx
	while (n > 0 && *p && *p == *q)
  800e07:	85 d2                	test   %edx,%edx
  800e09:	74 16                	je     800e21 <_Z7strncmpPKcS0_j+0x27>
  800e0b:	0f b6 01             	movzbl (%ecx),%eax
  800e0e:	84 c0                	test   %al,%al
  800e10:	74 17                	je     800e29 <_Z7strncmpPKcS0_j+0x2f>
  800e12:	3a 03                	cmp    (%ebx),%al
  800e14:	75 13                	jne    800e29 <_Z7strncmpPKcS0_j+0x2f>
		n--, p++, q++;
  800e16:	83 ea 01             	sub    $0x1,%edx
  800e19:	83 c1 01             	add    $0x1,%ecx
  800e1c:	83 c3 01             	add    $0x1,%ebx
  800e1f:	eb e6                	jmp    800e07 <_Z7strncmpPKcS0_j+0xd>
	if (n == 0)
		return 0;
  800e21:	b8 00 00 00 00       	mov    $0x0,%eax
	else
		return (unsigned char) *p - (unsigned char) *q;
}
  800e26:	5b                   	pop    %ebx
  800e27:	5d                   	pop    %ebp
  800e28:	c3                   	ret    
	while (n > 0 && *p && *p == *q)
		n--, p++, q++;
	if (n == 0)
		return 0;
	else
		return (unsigned char) *p - (unsigned char) *q;
  800e29:	0f b6 01             	movzbl (%ecx),%eax
  800e2c:	0f b6 13             	movzbl (%ebx),%edx
  800e2f:	29 d0                	sub    %edx,%eax
  800e31:	eb f3                	jmp    800e26 <_Z7strncmpPKcS0_j+0x2c>

00800e33 <_Z6strchrPKcc>:

// Return a pointer to the first occurrence of 'c' in 's',
// or a null pointer if the string has no 'c'.
char *
strchr(const char *s, char c)
{
  800e33:	55                   	push   %ebp
  800e34:	89 e5                	mov    %esp,%ebp
  800e36:	8b 45 08             	mov    0x8(%ebp),%eax
  800e39:	0f b6 4d 0c          	movzbl 0xc(%ebp),%ecx
	for (; *s; s++)
  800e3d:	0f b6 10             	movzbl (%eax),%edx
  800e40:	84 d2                	test   %dl,%dl
  800e42:	74 1f                	je     800e63 <_Z6strchrPKcc+0x30>
		if (*s == c)
  800e44:	38 ca                	cmp    %cl,%dl
  800e46:	75 0a                	jne    800e52 <_Z6strchrPKcc+0x1f>
  800e48:	eb 1e                	jmp    800e68 <_Z6strchrPKcc+0x35>
  800e4a:	38 ca                	cmp    %cl,%dl
  800e4c:	8d 74 26 00          	lea    0x0(%esi,%eiz,1),%esi
  800e50:	74 16                	je     800e68 <_Z6strchrPKcc+0x35>
// Return a pointer to the first occurrence of 'c' in 's',
// or a null pointer if the string has no 'c'.
char *
strchr(const char *s, char c)
{
	for (; *s; s++)
  800e52:	83 c0 01             	add    $0x1,%eax
  800e55:	0f b6 10             	movzbl (%eax),%edx
  800e58:	84 d2                	test   %dl,%dl
  800e5a:	75 ee                	jne    800e4a <_Z6strchrPKcc+0x17>
		if (*s == c)
			return (char *) s;
	return 0;
  800e5c:	b8 00 00 00 00       	mov    $0x0,%eax
  800e61:	eb 05                	jmp    800e68 <_Z6strchrPKcc+0x35>
  800e63:	b8 00 00 00 00       	mov    $0x0,%eax
}
  800e68:	5d                   	pop    %ebp
  800e69:	c3                   	ret    

00800e6a <_Z7strfindPKcc>:

// Return a pointer to the first occurrence of 'c' in 's',
// or a pointer to the string-ending null character if the string has no 'c'.
char *
strfind(const char *s, char c)
{
  800e6a:	55                   	push   %ebp
  800e6b:	89 e5                	mov    %esp,%ebp
  800e6d:	8b 45 08             	mov    0x8(%ebp),%eax
  800e70:	0f b6 4d 0c          	movzbl 0xc(%ebp),%ecx
	for (; *s; s++)
  800e74:	0f b6 10             	movzbl (%eax),%edx
  800e77:	84 d2                	test   %dl,%dl
  800e79:	74 14                	je     800e8f <_Z7strfindPKcc+0x25>
		if (*s == c)
  800e7b:	38 ca                	cmp    %cl,%dl
  800e7d:	75 06                	jne    800e85 <_Z7strfindPKcc+0x1b>
  800e7f:	eb 0e                	jmp    800e8f <_Z7strfindPKcc+0x25>
  800e81:	38 ca                	cmp    %cl,%dl
  800e83:	74 0a                	je     800e8f <_Z7strfindPKcc+0x25>
// Return a pointer to the first occurrence of 'c' in 's',
// or a pointer to the string-ending null character if the string has no 'c'.
char *
strfind(const char *s, char c)
{
	for (; *s; s++)
  800e85:	83 c0 01             	add    $0x1,%eax
  800e88:	0f b6 10             	movzbl (%eax),%edx
  800e8b:	84 d2                	test   %dl,%dl
  800e8d:	75 f2                	jne    800e81 <_Z7strfindPKcc+0x17>
		if (*s == c)
			break;
	return (char *) s;
}
  800e8f:	5d                   	pop    %ebp
  800e90:	c3                   	ret    

00800e91 <memset>:

asmlinkage void *
memset(void *v, int c, size_t n)
{
  800e91:	55                   	push   %ebp
  800e92:	89 e5                	mov    %esp,%ebp
  800e94:	83 ec 0c             	sub    $0xc,%esp
  800e97:	89 1c 24             	mov    %ebx,(%esp)
  800e9a:	89 74 24 04          	mov    %esi,0x4(%esp)
  800e9e:	89 7c 24 08          	mov    %edi,0x8(%esp)
  800ea2:	8b 7d 08             	mov    0x8(%ebp),%edi
  800ea5:	8b 45 0c             	mov    0xc(%ebp),%eax
  800ea8:	8b 4d 10             	mov    0x10(%ebp),%ecx
#if ASM
	if ((uintptr_t) v % 4 == 0 && n % 4 == 0) {
  800eab:	f7 c7 03 00 00 00    	test   $0x3,%edi
  800eb1:	75 25                	jne    800ed8 <memset+0x47>
  800eb3:	f6 c1 03             	test   $0x3,%cl
  800eb6:	75 20                	jne    800ed8 <memset+0x47>
		c &= 0xFF;
  800eb8:	0f b6 d0             	movzbl %al,%edx
		c = (c<<24)|(c<<16)|(c<<8)|c;
  800ebb:	89 d3                	mov    %edx,%ebx
  800ebd:	c1 e3 08             	shl    $0x8,%ebx
  800ec0:	89 d6                	mov    %edx,%esi
  800ec2:	c1 e6 18             	shl    $0x18,%esi
  800ec5:	89 d0                	mov    %edx,%eax
  800ec7:	c1 e0 10             	shl    $0x10,%eax
  800eca:	09 f0                	or     %esi,%eax
  800ecc:	09 d0                	or     %edx,%eax
  800ece:	09 d8                	or     %ebx,%eax
		asm volatile("cld; rep stosl\n"
			:: "D" (v), "a" (c), "c" (n/4)
			: "cc", "memory");
  800ed0:	c1 e9 02             	shr    $0x2,%ecx
  800ed3:	fc                   	cld    
  800ed4:	f3 ab                	rep stos %eax,%es:(%edi)
  800ed6:	eb 03                	jmp    800edb <memset+0x4a>
	} else
		asm volatile("cld; rep stosb\n"
			:: "D" (v), "a" (c), "c" (n)
			: "cc", "memory");
  800ed8:	fc                   	cld    
  800ed9:	f3 aa                	rep stos %al,%es:(%edi)
	while (n-- > 0)
		*p++ = c;
#endif

	return v;
}
  800edb:	89 f8                	mov    %edi,%eax
  800edd:	8b 1c 24             	mov    (%esp),%ebx
  800ee0:	8b 74 24 04          	mov    0x4(%esp),%esi
  800ee4:	8b 7c 24 08          	mov    0x8(%esp),%edi
  800ee8:	89 ec                	mov    %ebp,%esp
  800eea:	5d                   	pop    %ebp
  800eeb:	c3                   	ret    

00800eec <memmove>:

asmlinkage void *
memmove(void *dst, const void *src, size_t n)
{
  800eec:	55                   	push   %ebp
  800eed:	89 e5                	mov    %esp,%ebp
  800eef:	83 ec 08             	sub    $0x8,%esp
  800ef2:	89 34 24             	mov    %esi,(%esp)
  800ef5:	89 7c 24 04          	mov    %edi,0x4(%esp)
  800ef9:	8b 45 08             	mov    0x8(%ebp),%eax
  800efc:	8b 75 0c             	mov    0xc(%ebp),%esi
  800eff:	8b 4d 10             	mov    0x10(%ebp),%ecx
#if ASM
	const char *s = (const char *) src;
	char *d = (char *) dst;

	if (s < d && s + n > d) {
  800f02:	39 c6                	cmp    %eax,%esi
  800f04:	73 36                	jae    800f3c <memmove+0x50>
  800f06:	8d 14 0e             	lea    (%esi,%ecx,1),%edx
  800f09:	39 d0                	cmp    %edx,%eax
  800f0b:	73 2f                	jae    800f3c <memmove+0x50>
		s += n;
		d += n;
  800f0d:	8d 3c 08             	lea    (%eax,%ecx,1),%edi
		if ((uintptr_t) s % 4 == 0 && (uintptr_t) d % 4 == 0
  800f10:	f6 c2 03             	test   $0x3,%dl
  800f13:	75 1b                	jne    800f30 <memmove+0x44>
  800f15:	f7 c7 03 00 00 00    	test   $0x3,%edi
  800f1b:	75 13                	jne    800f30 <memmove+0x44>
  800f1d:	f6 c1 03             	test   $0x3,%cl
  800f20:	75 0e                	jne    800f30 <memmove+0x44>
		    && n % 4 == 0)
			asm volatile("std; rep movsl\n"
				:: "D" (d-4), "S" (s-4), "c" (n/4) : "cc", "memory");
  800f22:	83 ef 04             	sub    $0x4,%edi
  800f25:	8d 72 fc             	lea    -0x4(%edx),%esi
  800f28:	c1 e9 02             	shr    $0x2,%ecx
  800f2b:	fd                   	std    
  800f2c:	f3 a5                	rep movsl %ds:(%esi),%es:(%edi)
  800f2e:	eb 09                	jmp    800f39 <memmove+0x4d>
		else
			asm volatile("std; rep movsb\n"
				:: "D" (d-1), "S" (s-1), "c" (n) : "cc", "memory");
  800f30:	83 ef 01             	sub    $0x1,%edi
  800f33:	8d 72 ff             	lea    -0x1(%edx),%esi
  800f36:	fd                   	std    
  800f37:	f3 a4                	rep movsb %ds:(%esi),%es:(%edi)
		// Some versions of GCC rely on DF being clear
		asm volatile("cld" ::: "cc");
  800f39:	fc                   	cld    
  800f3a:	eb 20                	jmp    800f5c <memmove+0x70>
	} else {
		if ((uintptr_t) s % 4 == 0 && (uintptr_t) d % 4 == 0
  800f3c:	f7 c6 03 00 00 00    	test   $0x3,%esi
  800f42:	75 13                	jne    800f57 <memmove+0x6b>
  800f44:	a8 03                	test   $0x3,%al
  800f46:	75 0f                	jne    800f57 <memmove+0x6b>
  800f48:	f6 c1 03             	test   $0x3,%cl
  800f4b:	75 0a                	jne    800f57 <memmove+0x6b>
		    && n % 4 == 0)
			asm volatile("cld; rep movsl\n"
				:: "D" (d), "S" (s), "c" (n/4) : "cc", "memory");
  800f4d:	c1 e9 02             	shr    $0x2,%ecx
  800f50:	89 c7                	mov    %eax,%edi
  800f52:	fc                   	cld    
  800f53:	f3 a5                	rep movsl %ds:(%esi),%es:(%edi)
  800f55:	eb 05                	jmp    800f5c <memmove+0x70>
		else
			asm volatile("cld; rep movsb\n"
				:: "D" (d), "S" (s), "c" (n) : "cc", "memory");
  800f57:	89 c7                	mov    %eax,%edi
  800f59:	fc                   	cld    
  800f5a:	f3 a4                	rep movsb %ds:(%esi),%es:(%edi)
			*d++ = *s++;

#endif

	return dst;
}
  800f5c:	8b 34 24             	mov    (%esp),%esi
  800f5f:	8b 7c 24 04          	mov    0x4(%esp),%edi
  800f63:	89 ec                	mov    %ebp,%esp
  800f65:	5d                   	pop    %ebp
  800f66:	c3                   	ret    

00800f67 <memcpy>:

asmlinkage void *
memcpy(void *dst, const void *src, size_t n)
{
  800f67:	55                   	push   %ebp
  800f68:	89 e5                	mov    %esp,%ebp
  800f6a:	83 ec 08             	sub    $0x8,%esp
  800f6d:	89 34 24             	mov    %esi,(%esp)
  800f70:	89 7c 24 04          	mov    %edi,0x4(%esp)
  800f74:	8b 45 08             	mov    0x8(%ebp),%eax
  800f77:	8b 75 0c             	mov    0xc(%ebp),%esi
  800f7a:	8b 4d 10             	mov    0x10(%ebp),%ecx
#if ASM
	const char *s = (const char *) src;
	char *d = (char *) dst;

	if ((uintptr_t) s % 4 == 0 && (uintptr_t) d % 4 == 0
  800f7d:	f7 c6 03 00 00 00    	test   $0x3,%esi
  800f83:	75 13                	jne    800f98 <memcpy+0x31>
  800f85:	a8 03                	test   $0x3,%al
  800f87:	75 0f                	jne    800f98 <memcpy+0x31>
  800f89:	f6 c1 03             	test   $0x3,%cl
  800f8c:	75 0a                	jne    800f98 <memcpy+0x31>
	    && n % 4 == 0)
		asm volatile("cld; rep movsl\n"
			:: "D" (d), "S" (s), "c" (n/4) : "cc", "memory");
  800f8e:	c1 e9 02             	shr    $0x2,%ecx
  800f91:	89 c7                	mov    %eax,%edi
  800f93:	fc                   	cld    
  800f94:	f3 a5                	rep movsl %ds:(%esi),%es:(%edi)
  800f96:	eb 05                	jmp    800f9d <memcpy+0x36>
	else
		asm volatile("cld; rep movsb\n"
			:: "D" (d), "S" (s), "c" (n) : "cc", "memory");
  800f98:	89 c7                	mov    %eax,%edi
  800f9a:	fc                   	cld    
  800f9b:	f3 a4                	rep movsb %ds:(%esi),%es:(%edi)
	while (n-- > 0)
		*d++ = *s++;
#endif

	return dst;
}
  800f9d:	8b 34 24             	mov    (%esp),%esi
  800fa0:	8b 7c 24 04          	mov    0x4(%esp),%edi
  800fa4:	89 ec                	mov    %ebp,%esp
  800fa6:	5d                   	pop    %ebp
  800fa7:	c3                   	ret    

00800fa8 <memcmp>:

asmlinkage int
memcmp(const void *v1, const void *v2, size_t n)
{
  800fa8:	55                   	push   %ebp
  800fa9:	89 e5                	mov    %esp,%ebp
  800fab:	57                   	push   %edi
  800fac:	56                   	push   %esi
  800fad:	53                   	push   %ebx
  800fae:	8b 5d 08             	mov    0x8(%ebp),%ebx
  800fb1:	8b 75 0c             	mov    0xc(%ebp),%esi
  800fb4:	8b 7d 10             	mov    0x10(%ebp),%edi
		if (*s1 != *s2)
			return *s1 - *s2;
		s1++, s2++;
	}

	return 0;
  800fb7:	b8 00 00 00 00       	mov    $0x0,%eax
memcmp(const void *v1, const void *v2, size_t n)
{
	const unsigned char *s1 = (const unsigned char *) v1;
	const unsigned char *s2 = (const unsigned char *) v2;

	while (n-- > 0) {
  800fbc:	85 ff                	test   %edi,%edi
  800fbe:	74 38                	je     800ff8 <memcmp+0x50>
		if (*s1 != *s2)
  800fc0:	0f b6 03             	movzbl (%ebx),%eax
  800fc3:	0f b6 0e             	movzbl (%esi),%ecx
memcmp(const void *v1, const void *v2, size_t n)
{
	const unsigned char *s1 = (const unsigned char *) v1;
	const unsigned char *s2 = (const unsigned char *) v2;

	while (n-- > 0) {
  800fc6:	83 ef 01             	sub    $0x1,%edi
  800fc9:	ba 00 00 00 00       	mov    $0x0,%edx
		if (*s1 != *s2)
  800fce:	38 c8                	cmp    %cl,%al
  800fd0:	74 1d                	je     800fef <memcmp+0x47>
  800fd2:	eb 11                	jmp    800fe5 <memcmp+0x3d>
  800fd4:	0f b6 44 13 01       	movzbl 0x1(%ebx,%edx,1),%eax
  800fd9:	0f b6 4c 16 01       	movzbl 0x1(%esi,%edx,1),%ecx
  800fde:	83 c2 01             	add    $0x1,%edx
  800fe1:	38 c8                	cmp    %cl,%al
  800fe3:	74 0a                	je     800fef <memcmp+0x47>
			return *s1 - *s2;
  800fe5:	0f b6 c0             	movzbl %al,%eax
  800fe8:	0f b6 c9             	movzbl %cl,%ecx
  800feb:	29 c8                	sub    %ecx,%eax
  800fed:	eb 09                	jmp    800ff8 <memcmp+0x50>
memcmp(const void *v1, const void *v2, size_t n)
{
	const unsigned char *s1 = (const unsigned char *) v1;
	const unsigned char *s2 = (const unsigned char *) v2;

	while (n-- > 0) {
  800fef:	39 fa                	cmp    %edi,%edx
  800ff1:	75 e1                	jne    800fd4 <memcmp+0x2c>
		if (*s1 != *s2)
			return *s1 - *s2;
		s1++, s2++;
	}

	return 0;
  800ff3:	b8 00 00 00 00       	mov    $0x0,%eax
}
  800ff8:	5b                   	pop    %ebx
  800ff9:	5e                   	pop    %esi
  800ffa:	5f                   	pop    %edi
  800ffb:	5d                   	pop    %ebp
  800ffc:	c3                   	ret    

00800ffd <memfind>:

asmlinkage void *
memfind(const void *v, int c, size_t n)
{
  800ffd:	55                   	push   %ebp
  800ffe:	89 e5                	mov    %esp,%ebp
  801000:	53                   	push   %ebx
  801001:	8b 5d 08             	mov    0x8(%ebp),%ebx
	const unsigned char *s = (const unsigned char *) v;
  801004:	89 d8                	mov    %ebx,%eax
	const unsigned char *ends = s + n;
  801006:	89 da                	mov    %ebx,%edx
  801008:	03 55 10             	add    0x10(%ebp),%edx

	for (; s < ends; s++)
  80100b:	39 d3                	cmp    %edx,%ebx
  80100d:	73 15                	jae    801024 <memfind+0x27>
		if (*s == (unsigned char) c)
  80100f:	0f b6 4d 0c          	movzbl 0xc(%ebp),%ecx
  801013:	38 0b                	cmp    %cl,(%ebx)
  801015:	75 06                	jne    80101d <memfind+0x20>
  801017:	eb 0b                	jmp    801024 <memfind+0x27>
  801019:	38 08                	cmp    %cl,(%eax)
  80101b:	74 07                	je     801024 <memfind+0x27>
memfind(const void *v, int c, size_t n)
{
	const unsigned char *s = (const unsigned char *) v;
	const unsigned char *ends = s + n;

	for (; s < ends; s++)
  80101d:	83 c0 01             	add    $0x1,%eax
  801020:	39 c2                	cmp    %eax,%edx
  801022:	77 f5                	ja     801019 <memfind+0x1c>
		if (*s == (unsigned char) c)
			break;
	return (void *) s;
}
  801024:	5b                   	pop    %ebx
  801025:	5d                   	pop    %ebp
  801026:	c3                   	ret    

00801027 <_Z6strtolPKcPPci>:

long
strtol(const char *s, char **endptr, int base)
{
  801027:	55                   	push   %ebp
  801028:	89 e5                	mov    %esp,%ebp
  80102a:	57                   	push   %edi
  80102b:	56                   	push   %esi
  80102c:	53                   	push   %ebx
  80102d:	8b 55 08             	mov    0x8(%ebp),%edx
  801030:	8b 5d 10             	mov    0x10(%ebp),%ebx
	int neg = 0;
	long val = 0;

	// gobble initial whitespace
	while (*s == ' ' || *s == '\t')
  801033:	0f b6 02             	movzbl (%edx),%eax
  801036:	3c 20                	cmp    $0x20,%al
  801038:	74 04                	je     80103e <_Z6strtolPKcPPci+0x17>
  80103a:	3c 09                	cmp    $0x9,%al
  80103c:	75 0e                	jne    80104c <_Z6strtolPKcPPci+0x25>
		s++;
  80103e:	83 c2 01             	add    $0x1,%edx
{
	int neg = 0;
	long val = 0;

	// gobble initial whitespace
	while (*s == ' ' || *s == '\t')
  801041:	0f b6 02             	movzbl (%edx),%eax
  801044:	3c 20                	cmp    $0x20,%al
  801046:	74 f6                	je     80103e <_Z6strtolPKcPPci+0x17>
  801048:	3c 09                	cmp    $0x9,%al
  80104a:	74 f2                	je     80103e <_Z6strtolPKcPPci+0x17>
		s++;

	// plus/minus sign
	if (*s == '+')
  80104c:	3c 2b                	cmp    $0x2b,%al
  80104e:	75 0a                	jne    80105a <_Z6strtolPKcPPci+0x33>
		s++;
  801050:	83 c2 01             	add    $0x1,%edx
}

long
strtol(const char *s, char **endptr, int base)
{
	int neg = 0;
  801053:	bf 00 00 00 00       	mov    $0x0,%edi
  801058:	eb 10                	jmp    80106a <_Z6strtolPKcPPci+0x43>
  80105a:	bf 00 00 00 00       	mov    $0x0,%edi
		s++;

	// plus/minus sign
	if (*s == '+')
		s++;
	else if (*s == '-')
  80105f:	3c 2d                	cmp    $0x2d,%al
  801061:	75 07                	jne    80106a <_Z6strtolPKcPPci+0x43>
		s++, neg = 1;
  801063:	83 c2 01             	add    $0x1,%edx
  801066:	66 bf 01 00          	mov    $0x1,%di

	// hex or octal base prefix
	if ((base == 0 || base == 16) && (s[0] == '0' && s[1] == 'x'))
  80106a:	85 db                	test   %ebx,%ebx
  80106c:	0f 94 c0             	sete   %al
  80106f:	74 05                	je     801076 <_Z6strtolPKcPPci+0x4f>
  801071:	83 fb 10             	cmp    $0x10,%ebx
  801074:	75 15                	jne    80108b <_Z6strtolPKcPPci+0x64>
  801076:	80 3a 30             	cmpb   $0x30,(%edx)
  801079:	75 10                	jne    80108b <_Z6strtolPKcPPci+0x64>
  80107b:	80 7a 01 78          	cmpb   $0x78,0x1(%edx)
  80107f:	75 0a                	jne    80108b <_Z6strtolPKcPPci+0x64>
		s += 2, base = 16;
  801081:	83 c2 02             	add    $0x2,%edx
  801084:	bb 10 00 00 00       	mov    $0x10,%ebx
  801089:	eb 13                	jmp    80109e <_Z6strtolPKcPPci+0x77>
	else if (base == 0 && s[0] == '0')
  80108b:	84 c0                	test   %al,%al
  80108d:	74 0f                	je     80109e <_Z6strtolPKcPPci+0x77>
		s++, base = 8;
	else if (base == 0)
		base = 10;
  80108f:	bb 0a 00 00 00       	mov    $0xa,%ebx
		s++, neg = 1;

	// hex or octal base prefix
	if ((base == 0 || base == 16) && (s[0] == '0' && s[1] == 'x'))
		s += 2, base = 16;
	else if (base == 0 && s[0] == '0')
  801094:	80 3a 30             	cmpb   $0x30,(%edx)
  801097:	75 05                	jne    80109e <_Z6strtolPKcPPci+0x77>
		s++, base = 8;
  801099:	83 c2 01             	add    $0x1,%edx
  80109c:	b3 08                	mov    $0x8,%bl
	else if (base == 0)
		base = 10;
  80109e:	b8 00 00 00 00       	mov    $0x0,%eax
  8010a3:	89 de                	mov    %ebx,%esi

	// digits
	while (1) {
		int dig;

		if (*s >= '0' && *s <= '9')
  8010a5:	0f b6 0a             	movzbl (%edx),%ecx
  8010a8:	8d 59 d0             	lea    -0x30(%ecx),%ebx
  8010ab:	80 fb 09             	cmp    $0x9,%bl
  8010ae:	77 08                	ja     8010b8 <_Z6strtolPKcPPci+0x91>
			dig = *s - '0';
  8010b0:	0f be c9             	movsbl %cl,%ecx
  8010b3:	83 e9 30             	sub    $0x30,%ecx
  8010b6:	eb 1e                	jmp    8010d6 <_Z6strtolPKcPPci+0xaf>
		else if (*s >= 'a' && *s <= 'z')
  8010b8:	8d 59 9f             	lea    -0x61(%ecx),%ebx
  8010bb:	80 fb 19             	cmp    $0x19,%bl
  8010be:	77 08                	ja     8010c8 <_Z6strtolPKcPPci+0xa1>
			dig = *s - 'a' + 10;
  8010c0:	0f be c9             	movsbl %cl,%ecx
  8010c3:	83 e9 57             	sub    $0x57,%ecx
  8010c6:	eb 0e                	jmp    8010d6 <_Z6strtolPKcPPci+0xaf>
		else if (*s >= 'A' && *s <= 'Z')
  8010c8:	8d 59 bf             	lea    -0x41(%ecx),%ebx
  8010cb:	80 fb 19             	cmp    $0x19,%bl
  8010ce:	77 15                	ja     8010e5 <_Z6strtolPKcPPci+0xbe>
			dig = *s - 'A' + 10;
  8010d0:	0f be c9             	movsbl %cl,%ecx
  8010d3:	83 e9 37             	sub    $0x37,%ecx
		else
			break;
		if (dig >= base)
  8010d6:	39 f1                	cmp    %esi,%ecx
  8010d8:	7d 0f                	jge    8010e9 <_Z6strtolPKcPPci+0xc2>
			break;
		s++, val = (val * base) + dig;
  8010da:	83 c2 01             	add    $0x1,%edx
  8010dd:	0f af c6             	imul   %esi,%eax
  8010e0:	8d 04 01             	lea    (%ecx,%eax,1),%eax
		s++, base = 8;
	else if (base == 0)
		base = 10;

	// digits
	while (1) {
  8010e3:	eb c0                	jmp    8010a5 <_Z6strtolPKcPPci+0x7e>

		if (*s >= '0' && *s <= '9')
			dig = *s - '0';
		else if (*s >= 'a' && *s <= 'z')
			dig = *s - 'a' + 10;
		else if (*s >= 'A' && *s <= 'Z')
  8010e5:	89 c1                	mov    %eax,%ecx
  8010e7:	eb 02                	jmp    8010eb <_Z6strtolPKcPPci+0xc4>
			dig = *s - 'A' + 10;
		else
			break;
		if (dig >= base)
  8010e9:	89 c1                	mov    %eax,%ecx
			break;
		s++, val = (val * base) + dig;
		// we don't properly detect overflow!
	}

	if (endptr)
  8010eb:	83 7d 0c 00          	cmpl   $0x0,0xc(%ebp)
  8010ef:	74 05                	je     8010f6 <_Z6strtolPKcPPci+0xcf>
		*endptr = (char *) s;
  8010f1:	8b 5d 0c             	mov    0xc(%ebp),%ebx
  8010f4:	89 13                	mov    %edx,(%ebx)
	return (neg ? -val : val);
  8010f6:	89 ca                	mov    %ecx,%edx
  8010f8:	f7 da                	neg    %edx
  8010fa:	85 ff                	test   %edi,%edi
  8010fc:	0f 45 c2             	cmovne %edx,%eax
}
  8010ff:	5b                   	pop    %ebx
  801100:	5e                   	pop    %esi
  801101:	5f                   	pop    %edi
  801102:	5d                   	pop    %ebp
  801103:	c3                   	ret    

00801104 <_Z9sys_cputsPKcj>:
	return ret;
}

void
sys_cputs(const char *s, size_t len)
{
  801104:	55                   	push   %ebp
  801105:	89 e5                	mov    %esp,%ebp
  801107:	83 ec 0c             	sub    $0xc,%esp
  80110a:	89 1c 24             	mov    %ebx,(%esp)
  80110d:	89 74 24 04          	mov    %esi,0x4(%esp)
  801111:	89 7c 24 08          	mov    %edi,0x8(%esp)
		  "d" (a1),
		  "c" (a2),
		  "b" (a3),
		  "D" (a4),
		  "S" (a5)
		: "cc", "memory");
  801115:	b8 00 00 00 00       	mov    $0x0,%eax
  80111a:	8b 4d 0c             	mov    0xc(%ebp),%ecx
  80111d:	8b 55 08             	mov    0x8(%ebp),%edx
  801120:	89 c3                	mov    %eax,%ebx
  801122:	89 c7                	mov    %eax,%edi
  801124:	89 c6                	mov    %eax,%esi
  801126:	cd 30                	int    $0x30

void
sys_cputs(const char *s, size_t len)
{
	syscall(SYS_cputs, 0, (uint32_t)s, len, 0, 0, 0);
}
  801128:	8b 1c 24             	mov    (%esp),%ebx
  80112b:	8b 74 24 04          	mov    0x4(%esp),%esi
  80112f:	8b 7c 24 08          	mov    0x8(%esp),%edi
  801133:	89 ec                	mov    %ebp,%esp
  801135:	5d                   	pop    %ebp
  801136:	c3                   	ret    

00801137 <_Z9sys_cgetcv>:

int
sys_cgetc(void)
{
  801137:	55                   	push   %ebp
  801138:	89 e5                	mov    %esp,%ebp
  80113a:	83 ec 0c             	sub    $0xc,%esp
  80113d:	89 1c 24             	mov    %ebx,(%esp)
  801140:	89 74 24 04          	mov    %esi,0x4(%esp)
  801144:	89 7c 24 08          	mov    %edi,0x8(%esp)
		  "d" (a1),
		  "c" (a2),
		  "b" (a3),
		  "D" (a4),
		  "S" (a5)
		: "cc", "memory");
  801148:	ba 00 00 00 00       	mov    $0x0,%edx
  80114d:	b8 01 00 00 00       	mov    $0x1,%eax
  801152:	89 d1                	mov    %edx,%ecx
  801154:	89 d3                	mov    %edx,%ebx
  801156:	89 d7                	mov    %edx,%edi
  801158:	89 d6                	mov    %edx,%esi
  80115a:	cd 30                	int    $0x30

int
sys_cgetc(void)
{
	return syscall(SYS_cgetc, 0, 0, 0, 0, 0, 0);
}
  80115c:	8b 1c 24             	mov    (%esp),%ebx
  80115f:	8b 74 24 04          	mov    0x4(%esp),%esi
  801163:	8b 7c 24 08          	mov    0x8(%esp),%edi
  801167:	89 ec                	mov    %ebp,%esp
  801169:	5d                   	pop    %ebp
  80116a:	c3                   	ret    

0080116b <_Z15sys_env_destroyi>:

int
sys_env_destroy(envid_t envid)
{
  80116b:	55                   	push   %ebp
  80116c:	89 e5                	mov    %esp,%ebp
  80116e:	83 ec 38             	sub    $0x38,%esp
  801171:	89 5d f4             	mov    %ebx,-0xc(%ebp)
  801174:	89 75 f8             	mov    %esi,-0x8(%ebp)
  801177:	89 7d fc             	mov    %edi,-0x4(%ebp)
		  "d" (a1),
		  "c" (a2),
		  "b" (a3),
		  "D" (a4),
		  "S" (a5)
		: "cc", "memory");
  80117a:	b9 00 00 00 00       	mov    $0x0,%ecx
  80117f:	b8 03 00 00 00       	mov    $0x3,%eax
  801184:	8b 55 08             	mov    0x8(%ebp),%edx
  801187:	89 cb                	mov    %ecx,%ebx
  801189:	89 cf                	mov    %ecx,%edi
  80118b:	89 ce                	mov    %ecx,%esi
  80118d:	cd 30                	int    $0x30

	if(check && ret > 0)
  80118f:	85 c0                	test   %eax,%eax
  801191:	7e 28                	jle    8011bb <_Z15sys_env_destroyi+0x50>
		panic("syscall %d returned %d (> 0)", num, ret);
  801193:	89 44 24 10          	mov    %eax,0x10(%esp)
  801197:	c7 44 24 0c 03 00 00 	movl   $0x3,0xc(%esp)
  80119e:	00 
  80119f:	c7 44 24 08 94 54 80 	movl   $0x805494,0x8(%esp)
  8011a6:	00 
  8011a7:	c7 44 24 04 23 00 00 	movl   $0x23,0x4(%esp)
  8011ae:	00 
  8011af:	c7 04 24 b1 54 80 00 	movl   $0x8054b1,(%esp)
  8011b6:	e8 55 f4 ff ff       	call   800610 <_Z6_panicPKciS0_z>

int
sys_env_destroy(envid_t envid)
{
	return syscall(SYS_env_destroy, 1, envid, 0, 0, 0, 0);
}
  8011bb:	8b 5d f4             	mov    -0xc(%ebp),%ebx
  8011be:	8b 75 f8             	mov    -0x8(%ebp),%esi
  8011c1:	8b 7d fc             	mov    -0x4(%ebp),%edi
  8011c4:	89 ec                	mov    %ebp,%esp
  8011c6:	5d                   	pop    %ebp
  8011c7:	c3                   	ret    

008011c8 <_Z12sys_getenvidv>:

envid_t
sys_getenvid(void)
{
  8011c8:	55                   	push   %ebp
  8011c9:	89 e5                	mov    %esp,%ebp
  8011cb:	83 ec 0c             	sub    $0xc,%esp
  8011ce:	89 1c 24             	mov    %ebx,(%esp)
  8011d1:	89 74 24 04          	mov    %esi,0x4(%esp)
  8011d5:	89 7c 24 08          	mov    %edi,0x8(%esp)
		  "d" (a1),
		  "c" (a2),
		  "b" (a3),
		  "D" (a4),
		  "S" (a5)
		: "cc", "memory");
  8011d9:	ba 00 00 00 00       	mov    $0x0,%edx
  8011de:	b8 02 00 00 00       	mov    $0x2,%eax
  8011e3:	89 d1                	mov    %edx,%ecx
  8011e5:	89 d3                	mov    %edx,%ebx
  8011e7:	89 d7                	mov    %edx,%edi
  8011e9:	89 d6                	mov    %edx,%esi
  8011eb:	cd 30                	int    $0x30

envid_t
sys_getenvid(void)
{
	 return syscall(SYS_getenvid, 0, 0, 0, 0, 0, 0);
}
  8011ed:	8b 1c 24             	mov    (%esp),%ebx
  8011f0:	8b 74 24 04          	mov    0x4(%esp),%esi
  8011f4:	8b 7c 24 08          	mov    0x8(%esp),%edi
  8011f8:	89 ec                	mov    %ebp,%esp
  8011fa:	5d                   	pop    %ebp
  8011fb:	c3                   	ret    

008011fc <_Z9sys_yieldv>:

void
sys_yield(void)
{
  8011fc:	55                   	push   %ebp
  8011fd:	89 e5                	mov    %esp,%ebp
  8011ff:	83 ec 0c             	sub    $0xc,%esp
  801202:	89 1c 24             	mov    %ebx,(%esp)
  801205:	89 74 24 04          	mov    %esi,0x4(%esp)
  801209:	89 7c 24 08          	mov    %edi,0x8(%esp)
		  "d" (a1),
		  "c" (a2),
		  "b" (a3),
		  "D" (a4),
		  "S" (a5)
		: "cc", "memory");
  80120d:	ba 00 00 00 00       	mov    $0x0,%edx
  801212:	b8 04 00 00 00       	mov    $0x4,%eax
  801217:	89 d1                	mov    %edx,%ecx
  801219:	89 d3                	mov    %edx,%ebx
  80121b:	89 d7                	mov    %edx,%edi
  80121d:	89 d6                	mov    %edx,%esi
  80121f:	cd 30                	int    $0x30

void
sys_yield(void)
{
	syscall(SYS_yield, 0, 0, 0, 0, 0, 0);
}
  801221:	8b 1c 24             	mov    (%esp),%ebx
  801224:	8b 74 24 04          	mov    0x4(%esp),%esi
  801228:	8b 7c 24 08          	mov    0x8(%esp),%edi
  80122c:	89 ec                	mov    %ebp,%esp
  80122e:	5d                   	pop    %ebp
  80122f:	c3                   	ret    

00801230 <_Z14sys_page_allociPvi>:

int
sys_page_alloc(envid_t envid, void *va, int perm)
{
  801230:	55                   	push   %ebp
  801231:	89 e5                	mov    %esp,%ebp
  801233:	83 ec 38             	sub    $0x38,%esp
  801236:	89 5d f4             	mov    %ebx,-0xc(%ebp)
  801239:	89 75 f8             	mov    %esi,-0x8(%ebp)
  80123c:	89 7d fc             	mov    %edi,-0x4(%ebp)
		  "d" (a1),
		  "c" (a2),
		  "b" (a3),
		  "D" (a4),
		  "S" (a5)
		: "cc", "memory");
  80123f:	be 00 00 00 00       	mov    $0x0,%esi
  801244:	b8 08 00 00 00       	mov    $0x8,%eax
  801249:	8b 5d 10             	mov    0x10(%ebp),%ebx
  80124c:	8b 4d 0c             	mov    0xc(%ebp),%ecx
  80124f:	8b 55 08             	mov    0x8(%ebp),%edx
  801252:	89 f7                	mov    %esi,%edi
  801254:	cd 30                	int    $0x30

	if(check && ret > 0)
  801256:	85 c0                	test   %eax,%eax
  801258:	7e 28                	jle    801282 <_Z14sys_page_allociPvi+0x52>
		panic("syscall %d returned %d (> 0)", num, ret);
  80125a:	89 44 24 10          	mov    %eax,0x10(%esp)
  80125e:	c7 44 24 0c 08 00 00 	movl   $0x8,0xc(%esp)
  801265:	00 
  801266:	c7 44 24 08 94 54 80 	movl   $0x805494,0x8(%esp)
  80126d:	00 
  80126e:	c7 44 24 04 23 00 00 	movl   $0x23,0x4(%esp)
  801275:	00 
  801276:	c7 04 24 b1 54 80 00 	movl   $0x8054b1,(%esp)
  80127d:	e8 8e f3 ff ff       	call   800610 <_Z6_panicPKciS0_z>

int
sys_page_alloc(envid_t envid, void *va, int perm)
{
	return syscall(SYS_page_alloc, 1, envid, (uint32_t) va, perm, 0, 0);
}
  801282:	8b 5d f4             	mov    -0xc(%ebp),%ebx
  801285:	8b 75 f8             	mov    -0x8(%ebp),%esi
  801288:	8b 7d fc             	mov    -0x4(%ebp),%edi
  80128b:	89 ec                	mov    %ebp,%esp
  80128d:	5d                   	pop    %ebp
  80128e:	c3                   	ret    

0080128f <_Z12sys_page_mapiPviS_i>:

int
sys_page_map(envid_t srcenv, void *srcva, envid_t dstenv, void *dstva, int perm)
{
  80128f:	55                   	push   %ebp
  801290:	89 e5                	mov    %esp,%ebp
  801292:	83 ec 38             	sub    $0x38,%esp
  801295:	89 5d f4             	mov    %ebx,-0xc(%ebp)
  801298:	89 75 f8             	mov    %esi,-0x8(%ebp)
  80129b:	89 7d fc             	mov    %edi,-0x4(%ebp)
		  "d" (a1),
		  "c" (a2),
		  "b" (a3),
		  "D" (a4),
		  "S" (a5)
		: "cc", "memory");
  80129e:	b8 09 00 00 00       	mov    $0x9,%eax
  8012a3:	8b 75 18             	mov    0x18(%ebp),%esi
  8012a6:	8b 7d 14             	mov    0x14(%ebp),%edi
  8012a9:	8b 5d 10             	mov    0x10(%ebp),%ebx
  8012ac:	8b 4d 0c             	mov    0xc(%ebp),%ecx
  8012af:	8b 55 08             	mov    0x8(%ebp),%edx
  8012b2:	cd 30                	int    $0x30

	if(check && ret > 0)
  8012b4:	85 c0                	test   %eax,%eax
  8012b6:	7e 28                	jle    8012e0 <_Z12sys_page_mapiPviS_i+0x51>
		panic("syscall %d returned %d (> 0)", num, ret);
  8012b8:	89 44 24 10          	mov    %eax,0x10(%esp)
  8012bc:	c7 44 24 0c 09 00 00 	movl   $0x9,0xc(%esp)
  8012c3:	00 
  8012c4:	c7 44 24 08 94 54 80 	movl   $0x805494,0x8(%esp)
  8012cb:	00 
  8012cc:	c7 44 24 04 23 00 00 	movl   $0x23,0x4(%esp)
  8012d3:	00 
  8012d4:	c7 04 24 b1 54 80 00 	movl   $0x8054b1,(%esp)
  8012db:	e8 30 f3 ff ff       	call   800610 <_Z6_panicPKciS0_z>

int
sys_page_map(envid_t srcenv, void *srcva, envid_t dstenv, void *dstva, int perm)
{
	return syscall(SYS_page_map, 1, srcenv, (uint32_t) srcva, dstenv, (uint32_t) dstva, perm);
}
  8012e0:	8b 5d f4             	mov    -0xc(%ebp),%ebx
  8012e3:	8b 75 f8             	mov    -0x8(%ebp),%esi
  8012e6:	8b 7d fc             	mov    -0x4(%ebp),%edi
  8012e9:	89 ec                	mov    %ebp,%esp
  8012eb:	5d                   	pop    %ebp
  8012ec:	c3                   	ret    

008012ed <_Z14sys_page_unmapiPv>:

int
sys_page_unmap(envid_t envid, void *va)
{
  8012ed:	55                   	push   %ebp
  8012ee:	89 e5                	mov    %esp,%ebp
  8012f0:	83 ec 38             	sub    $0x38,%esp
  8012f3:	89 5d f4             	mov    %ebx,-0xc(%ebp)
  8012f6:	89 75 f8             	mov    %esi,-0x8(%ebp)
  8012f9:	89 7d fc             	mov    %edi,-0x4(%ebp)
		  "d" (a1),
		  "c" (a2),
		  "b" (a3),
		  "D" (a4),
		  "S" (a5)
		: "cc", "memory");
  8012fc:	bb 00 00 00 00       	mov    $0x0,%ebx
  801301:	b8 0a 00 00 00       	mov    $0xa,%eax
  801306:	8b 4d 0c             	mov    0xc(%ebp),%ecx
  801309:	8b 55 08             	mov    0x8(%ebp),%edx
  80130c:	89 df                	mov    %ebx,%edi
  80130e:	89 de                	mov    %ebx,%esi
  801310:	cd 30                	int    $0x30

	if(check && ret > 0)
  801312:	85 c0                	test   %eax,%eax
  801314:	7e 28                	jle    80133e <_Z14sys_page_unmapiPv+0x51>
		panic("syscall %d returned %d (> 0)", num, ret);
  801316:	89 44 24 10          	mov    %eax,0x10(%esp)
  80131a:	c7 44 24 0c 0a 00 00 	movl   $0xa,0xc(%esp)
  801321:	00 
  801322:	c7 44 24 08 94 54 80 	movl   $0x805494,0x8(%esp)
  801329:	00 
  80132a:	c7 44 24 04 23 00 00 	movl   $0x23,0x4(%esp)
  801331:	00 
  801332:	c7 04 24 b1 54 80 00 	movl   $0x8054b1,(%esp)
  801339:	e8 d2 f2 ff ff       	call   800610 <_Z6_panicPKciS0_z>

int
sys_page_unmap(envid_t envid, void *va)
{
	return syscall(SYS_page_unmap, 1, envid, (uint32_t) va, 0, 0, 0);
}
  80133e:	8b 5d f4             	mov    -0xc(%ebp),%ebx
  801341:	8b 75 f8             	mov    -0x8(%ebp),%esi
  801344:	8b 7d fc             	mov    -0x4(%ebp),%edi
  801347:	89 ec                	mov    %ebp,%esp
  801349:	5d                   	pop    %ebp
  80134a:	c3                   	ret    

0080134b <_Z18sys_env_set_statusii>:

int
sys_env_set_status(envid_t envid, int status)
{
  80134b:	55                   	push   %ebp
  80134c:	89 e5                	mov    %esp,%ebp
  80134e:	83 ec 38             	sub    $0x38,%esp
  801351:	89 5d f4             	mov    %ebx,-0xc(%ebp)
  801354:	89 75 f8             	mov    %esi,-0x8(%ebp)
  801357:	89 7d fc             	mov    %edi,-0x4(%ebp)
		  "d" (a1),
		  "c" (a2),
		  "b" (a3),
		  "D" (a4),
		  "S" (a5)
		: "cc", "memory");
  80135a:	bb 00 00 00 00       	mov    $0x0,%ebx
  80135f:	b8 05 00 00 00       	mov    $0x5,%eax
  801364:	8b 4d 0c             	mov    0xc(%ebp),%ecx
  801367:	8b 55 08             	mov    0x8(%ebp),%edx
  80136a:	89 df                	mov    %ebx,%edi
  80136c:	89 de                	mov    %ebx,%esi
  80136e:	cd 30                	int    $0x30

	if(check && ret > 0)
  801370:	85 c0                	test   %eax,%eax
  801372:	7e 28                	jle    80139c <_Z18sys_env_set_statusii+0x51>
		panic("syscall %d returned %d (> 0)", num, ret);
  801374:	89 44 24 10          	mov    %eax,0x10(%esp)
  801378:	c7 44 24 0c 05 00 00 	movl   $0x5,0xc(%esp)
  80137f:	00 
  801380:	c7 44 24 08 94 54 80 	movl   $0x805494,0x8(%esp)
  801387:	00 
  801388:	c7 44 24 04 23 00 00 	movl   $0x23,0x4(%esp)
  80138f:	00 
  801390:	c7 04 24 b1 54 80 00 	movl   $0x8054b1,(%esp)
  801397:	e8 74 f2 ff ff       	call   800610 <_Z6_panicPKciS0_z>

int
sys_env_set_status(envid_t envid, int status)
{
	return syscall(SYS_env_set_status, 1, envid, status, 0, 0, 0);
}
  80139c:	8b 5d f4             	mov    -0xc(%ebp),%ebx
  80139f:	8b 75 f8             	mov    -0x8(%ebp),%esi
  8013a2:	8b 7d fc             	mov    -0x4(%ebp),%edi
  8013a5:	89 ec                	mov    %ebp,%esp
  8013a7:	5d                   	pop    %ebp
  8013a8:	c3                   	ret    

008013a9 <_Z20sys_env_set_priorityii>:

int
sys_env_set_priority(envid_t envid, int priority)
{
  8013a9:	55                   	push   %ebp
  8013aa:	89 e5                	mov    %esp,%ebp
  8013ac:	83 ec 38             	sub    $0x38,%esp
  8013af:	89 5d f4             	mov    %ebx,-0xc(%ebp)
  8013b2:	89 75 f8             	mov    %esi,-0x8(%ebp)
  8013b5:	89 7d fc             	mov    %edi,-0x4(%ebp)
		  "d" (a1),
		  "c" (a2),
		  "b" (a3),
		  "D" (a4),
		  "S" (a5)
		: "cc", "memory");
  8013b8:	bb 00 00 00 00       	mov    $0x0,%ebx
  8013bd:	b8 06 00 00 00       	mov    $0x6,%eax
  8013c2:	8b 4d 0c             	mov    0xc(%ebp),%ecx
  8013c5:	8b 55 08             	mov    0x8(%ebp),%edx
  8013c8:	89 df                	mov    %ebx,%edi
  8013ca:	89 de                	mov    %ebx,%esi
  8013cc:	cd 30                	int    $0x30

	if(check && ret > 0)
  8013ce:	85 c0                	test   %eax,%eax
  8013d0:	7e 28                	jle    8013fa <_Z20sys_env_set_priorityii+0x51>
		panic("syscall %d returned %d (> 0)", num, ret);
  8013d2:	89 44 24 10          	mov    %eax,0x10(%esp)
  8013d6:	c7 44 24 0c 06 00 00 	movl   $0x6,0xc(%esp)
  8013dd:	00 
  8013de:	c7 44 24 08 94 54 80 	movl   $0x805494,0x8(%esp)
  8013e5:	00 
  8013e6:	c7 44 24 04 23 00 00 	movl   $0x23,0x4(%esp)
  8013ed:	00 
  8013ee:	c7 04 24 b1 54 80 00 	movl   $0x8054b1,(%esp)
  8013f5:	e8 16 f2 ff ff       	call   800610 <_Z6_panicPKciS0_z>

int
sys_env_set_priority(envid_t envid, int priority)
{
	return syscall(SYS_env_set_priority, 1, envid, priority, 0, 0, 0);
}
  8013fa:	8b 5d f4             	mov    -0xc(%ebp),%ebx
  8013fd:	8b 75 f8             	mov    -0x8(%ebp),%esi
  801400:	8b 7d fc             	mov    -0x4(%ebp),%edi
  801403:	89 ec                	mov    %ebp,%esp
  801405:	5d                   	pop    %ebp
  801406:	c3                   	ret    

00801407 <_Z21sys_env_set_trapframeiP9Trapframe>:

// sys_exofork is inlined in lib.h

int
sys_env_set_trapframe(envid_t envid, struct Trapframe *tf)
{
  801407:	55                   	push   %ebp
  801408:	89 e5                	mov    %esp,%ebp
  80140a:	83 ec 38             	sub    $0x38,%esp
  80140d:	89 5d f4             	mov    %ebx,-0xc(%ebp)
  801410:	89 75 f8             	mov    %esi,-0x8(%ebp)
  801413:	89 7d fc             	mov    %edi,-0x4(%ebp)
		  "d" (a1),
		  "c" (a2),
		  "b" (a3),
		  "D" (a4),
		  "S" (a5)
		: "cc", "memory");
  801416:	bb 00 00 00 00       	mov    $0x0,%ebx
  80141b:	b8 0b 00 00 00       	mov    $0xb,%eax
  801420:	8b 4d 0c             	mov    0xc(%ebp),%ecx
  801423:	8b 55 08             	mov    0x8(%ebp),%edx
  801426:	89 df                	mov    %ebx,%edi
  801428:	89 de                	mov    %ebx,%esi
  80142a:	cd 30                	int    $0x30

	if(check && ret > 0)
  80142c:	85 c0                	test   %eax,%eax
  80142e:	7e 28                	jle    801458 <_Z21sys_env_set_trapframeiP9Trapframe+0x51>
		panic("syscall %d returned %d (> 0)", num, ret);
  801430:	89 44 24 10          	mov    %eax,0x10(%esp)
  801434:	c7 44 24 0c 0b 00 00 	movl   $0xb,0xc(%esp)
  80143b:	00 
  80143c:	c7 44 24 08 94 54 80 	movl   $0x805494,0x8(%esp)
  801443:	00 
  801444:	c7 44 24 04 23 00 00 	movl   $0x23,0x4(%esp)
  80144b:	00 
  80144c:	c7 04 24 b1 54 80 00 	movl   $0x8054b1,(%esp)
  801453:	e8 b8 f1 ff ff       	call   800610 <_Z6_panicPKciS0_z>

int
sys_env_set_trapframe(envid_t envid, struct Trapframe *tf)
{
	return syscall(SYS_env_set_trapframe, 1, envid, (uint32_t) tf, 0, 0, 0);
}
  801458:	8b 5d f4             	mov    -0xc(%ebp),%ebx
  80145b:	8b 75 f8             	mov    -0x8(%ebp),%esi
  80145e:	8b 7d fc             	mov    -0x4(%ebp),%edi
  801461:	89 ec                	mov    %ebp,%esp
  801463:	5d                   	pop    %ebp
  801464:	c3                   	ret    

00801465 <_Z26sys_env_set_pgfault_upcalliPv>:

int
sys_env_set_pgfault_upcall(envid_t envid, void *upcall)
{
  801465:	55                   	push   %ebp
  801466:	89 e5                	mov    %esp,%ebp
  801468:	83 ec 38             	sub    $0x38,%esp
  80146b:	89 5d f4             	mov    %ebx,-0xc(%ebp)
  80146e:	89 75 f8             	mov    %esi,-0x8(%ebp)
  801471:	89 7d fc             	mov    %edi,-0x4(%ebp)
		  "d" (a1),
		  "c" (a2),
		  "b" (a3),
		  "D" (a4),
		  "S" (a5)
		: "cc", "memory");
  801474:	bb 00 00 00 00       	mov    $0x0,%ebx
  801479:	b8 0c 00 00 00       	mov    $0xc,%eax
  80147e:	8b 4d 0c             	mov    0xc(%ebp),%ecx
  801481:	8b 55 08             	mov    0x8(%ebp),%edx
  801484:	89 df                	mov    %ebx,%edi
  801486:	89 de                	mov    %ebx,%esi
  801488:	cd 30                	int    $0x30

	if(check && ret > 0)
  80148a:	85 c0                	test   %eax,%eax
  80148c:	7e 28                	jle    8014b6 <_Z26sys_env_set_pgfault_upcalliPv+0x51>
		panic("syscall %d returned %d (> 0)", num, ret);
  80148e:	89 44 24 10          	mov    %eax,0x10(%esp)
  801492:	c7 44 24 0c 0c 00 00 	movl   $0xc,0xc(%esp)
  801499:	00 
  80149a:	c7 44 24 08 94 54 80 	movl   $0x805494,0x8(%esp)
  8014a1:	00 
  8014a2:	c7 44 24 04 23 00 00 	movl   $0x23,0x4(%esp)
  8014a9:	00 
  8014aa:	c7 04 24 b1 54 80 00 	movl   $0x8054b1,(%esp)
  8014b1:	e8 5a f1 ff ff       	call   800610 <_Z6_panicPKciS0_z>

int
sys_env_set_pgfault_upcall(envid_t envid, void *upcall)
{
	return syscall(SYS_env_set_pgfault_upcall, 1, envid, (uint32_t) upcall, 0, 0, 0);
}
  8014b6:	8b 5d f4             	mov    -0xc(%ebp),%ebx
  8014b9:	8b 75 f8             	mov    -0x8(%ebp),%esi
  8014bc:	8b 7d fc             	mov    -0x4(%ebp),%edi
  8014bf:	89 ec                	mov    %ebp,%esp
  8014c1:	5d                   	pop    %ebp
  8014c2:	c3                   	ret    

008014c3 <_Z16sys_ipc_try_sendijPvi>:

int
sys_ipc_try_send(envid_t envid, uint32_t value, void *srcva, int perm)
{
  8014c3:	55                   	push   %ebp
  8014c4:	89 e5                	mov    %esp,%ebp
  8014c6:	83 ec 0c             	sub    $0xc,%esp
  8014c9:	89 1c 24             	mov    %ebx,(%esp)
  8014cc:	89 74 24 04          	mov    %esi,0x4(%esp)
  8014d0:	89 7c 24 08          	mov    %edi,0x8(%esp)
		  "d" (a1),
		  "c" (a2),
		  "b" (a3),
		  "D" (a4),
		  "S" (a5)
		: "cc", "memory");
  8014d4:	be 00 00 00 00       	mov    $0x0,%esi
  8014d9:	b8 0d 00 00 00       	mov    $0xd,%eax
  8014de:	8b 7d 14             	mov    0x14(%ebp),%edi
  8014e1:	8b 5d 10             	mov    0x10(%ebp),%ebx
  8014e4:	8b 4d 0c             	mov    0xc(%ebp),%ecx
  8014e7:	8b 55 08             	mov    0x8(%ebp),%edx
  8014ea:	cd 30                	int    $0x30

int
sys_ipc_try_send(envid_t envid, uint32_t value, void *srcva, int perm)
{
	return syscall(SYS_ipc_try_send, 0, envid, value, (uint32_t) srcva, perm, 0);
}
  8014ec:	8b 1c 24             	mov    (%esp),%ebx
  8014ef:	8b 74 24 04          	mov    0x4(%esp),%esi
  8014f3:	8b 7c 24 08          	mov    0x8(%esp),%edi
  8014f7:	89 ec                	mov    %ebp,%esp
  8014f9:	5d                   	pop    %ebp
  8014fa:	c3                   	ret    

008014fb <_Z12sys_ipc_recvPv>:

int
sys_ipc_recv(void *dstva)
{
  8014fb:	55                   	push   %ebp
  8014fc:	89 e5                	mov    %esp,%ebp
  8014fe:	83 ec 38             	sub    $0x38,%esp
  801501:	89 5d f4             	mov    %ebx,-0xc(%ebp)
  801504:	89 75 f8             	mov    %esi,-0x8(%ebp)
  801507:	89 7d fc             	mov    %edi,-0x4(%ebp)
		  "d" (a1),
		  "c" (a2),
		  "b" (a3),
		  "D" (a4),
		  "S" (a5)
		: "cc", "memory");
  80150a:	b9 00 00 00 00       	mov    $0x0,%ecx
  80150f:	b8 0e 00 00 00       	mov    $0xe,%eax
  801514:	8b 55 08             	mov    0x8(%ebp),%edx
  801517:	89 cb                	mov    %ecx,%ebx
  801519:	89 cf                	mov    %ecx,%edi
  80151b:	89 ce                	mov    %ecx,%esi
  80151d:	cd 30                	int    $0x30

	if(check && ret > 0)
  80151f:	85 c0                	test   %eax,%eax
  801521:	7e 28                	jle    80154b <_Z12sys_ipc_recvPv+0x50>
		panic("syscall %d returned %d (> 0)", num, ret);
  801523:	89 44 24 10          	mov    %eax,0x10(%esp)
  801527:	c7 44 24 0c 0e 00 00 	movl   $0xe,0xc(%esp)
  80152e:	00 
  80152f:	c7 44 24 08 94 54 80 	movl   $0x805494,0x8(%esp)
  801536:	00 
  801537:	c7 44 24 04 23 00 00 	movl   $0x23,0x4(%esp)
  80153e:	00 
  80153f:	c7 04 24 b1 54 80 00 	movl   $0x8054b1,(%esp)
  801546:	e8 c5 f0 ff ff       	call   800610 <_Z6_panicPKciS0_z>

int
sys_ipc_recv(void *dstva)
{
	return syscall(SYS_ipc_recv, 1, (uint32_t)dstva, 0, 0, 0, 0);
}
  80154b:	8b 5d f4             	mov    -0xc(%ebp),%ebx
  80154e:	8b 75 f8             	mov    -0x8(%ebp),%esi
  801551:	8b 7d fc             	mov    -0x4(%ebp),%edi
  801554:	89 ec                	mov    %ebp,%esp
  801556:	5d                   	pop    %ebp
  801557:	c3                   	ret    

00801558 <_Z18sys_program_lookupPKcj>:

int
sys_program_lookup(const char *name, size_t len)
{
  801558:	55                   	push   %ebp
  801559:	89 e5                	mov    %esp,%ebp
  80155b:	83 ec 0c             	sub    $0xc,%esp
  80155e:	89 1c 24             	mov    %ebx,(%esp)
  801561:	89 74 24 04          	mov    %esi,0x4(%esp)
  801565:	89 7c 24 08          	mov    %edi,0x8(%esp)
		  "d" (a1),
		  "c" (a2),
		  "b" (a3),
		  "D" (a4),
		  "S" (a5)
		: "cc", "memory");
  801569:	bb 00 00 00 00       	mov    $0x0,%ebx
  80156e:	b8 0f 00 00 00       	mov    $0xf,%eax
  801573:	8b 4d 0c             	mov    0xc(%ebp),%ecx
  801576:	8b 55 08             	mov    0x8(%ebp),%edx
  801579:	89 df                	mov    %ebx,%edi
  80157b:	89 de                	mov    %ebx,%esi
  80157d:	cd 30                	int    $0x30

int
sys_program_lookup(const char *name, size_t len)
{
	return syscall(SYS_program_lookup, 0, (uintptr_t) name, len, 0, 0, 0);
}
  80157f:	8b 1c 24             	mov    (%esp),%ebx
  801582:	8b 74 24 04          	mov    0x4(%esp),%esi
  801586:	8b 7c 24 08          	mov    0x8(%esp),%edi
  80158a:	89 ec                	mov    %ebp,%esp
  80158c:	5d                   	pop    %ebp
  80158d:	c3                   	ret    

0080158e <_Z13sys_time_msecv>:

uint32_t
sys_time_msec(void)
{
  80158e:	55                   	push   %ebp
  80158f:	89 e5                	mov    %esp,%ebp
  801591:	83 ec 0c             	sub    $0xc,%esp
  801594:	89 1c 24             	mov    %ebx,(%esp)
  801597:	89 74 24 04          	mov    %esi,0x4(%esp)
  80159b:	89 7c 24 08          	mov    %edi,0x8(%esp)
		  "d" (a1),
		  "c" (a2),
		  "b" (a3),
		  "D" (a4),
		  "S" (a5)
		: "cc", "memory");
  80159f:	ba 00 00 00 00       	mov    $0x0,%edx
  8015a4:	b8 11 00 00 00       	mov    $0x11,%eax
  8015a9:	89 d1                	mov    %edx,%ecx
  8015ab:	89 d3                	mov    %edx,%ebx
  8015ad:	89 d7                	mov    %edx,%edi
  8015af:	89 d6                	mov    %edx,%esi
  8015b1:	cd 30                	int    $0x30

uint32_t
sys_time_msec(void)
{
    return syscall(SYS_time_msec, 0, 0, 0, 0, 0, 0);
}
  8015b3:	8b 1c 24             	mov    (%esp),%ebx
  8015b6:	8b 74 24 04          	mov    0x4(%esp),%esi
  8015ba:	8b 7c 24 08          	mov    0x8(%esp),%edi
  8015be:	89 ec                	mov    %ebp,%esp
  8015c0:	5d                   	pop    %ebp
  8015c1:	c3                   	ret    

008015c2 <_Z18sys_e1000_transmitPvj>:

int
sys_e1000_transmit(void *buffer, size_t len)
{
  8015c2:	55                   	push   %ebp
  8015c3:	89 e5                	mov    %esp,%ebp
  8015c5:	83 ec 0c             	sub    $0xc,%esp
  8015c8:	89 1c 24             	mov    %ebx,(%esp)
  8015cb:	89 74 24 04          	mov    %esi,0x4(%esp)
  8015cf:	89 7c 24 08          	mov    %edi,0x8(%esp)
		  "d" (a1),
		  "c" (a2),
		  "b" (a3),
		  "D" (a4),
		  "S" (a5)
		: "cc", "memory");
  8015d3:	bb 00 00 00 00       	mov    $0x0,%ebx
  8015d8:	b8 12 00 00 00       	mov    $0x12,%eax
  8015dd:	8b 4d 0c             	mov    0xc(%ebp),%ecx
  8015e0:	8b 55 08             	mov    0x8(%ebp),%edx
  8015e3:	89 df                	mov    %ebx,%edi
  8015e5:	89 de                	mov    %ebx,%esi
  8015e7:	cd 30                	int    $0x30

int
sys_e1000_transmit(void *buffer, size_t len)
{
    return syscall(SYS_e1000_transmit, 0, (uint32_t)buffer, (uint32_t)len, 0, 0, 0);
}
  8015e9:	8b 1c 24             	mov    (%esp),%ebx
  8015ec:	8b 74 24 04          	mov    0x4(%esp),%esi
  8015f0:	8b 7c 24 08          	mov    0x8(%esp),%edi
  8015f4:	89 ec                	mov    %ebp,%esp
  8015f6:	5d                   	pop    %ebp
  8015f7:	c3                   	ret    

008015f8 <_Z17sys_e1000_receivePv>:

size_t
sys_e1000_receive(void *buffer)
{
  8015f8:	55                   	push   %ebp
  8015f9:	89 e5                	mov    %esp,%ebp
  8015fb:	83 ec 0c             	sub    $0xc,%esp
  8015fe:	89 1c 24             	mov    %ebx,(%esp)
  801601:	89 74 24 04          	mov    %esi,0x4(%esp)
  801605:	89 7c 24 08          	mov    %edi,0x8(%esp)
		  "d" (a1),
		  "c" (a2),
		  "b" (a3),
		  "D" (a4),
		  "S" (a5)
		: "cc", "memory");
  801609:	b9 00 00 00 00       	mov    $0x0,%ecx
  80160e:	b8 13 00 00 00       	mov    $0x13,%eax
  801613:	8b 55 08             	mov    0x8(%ebp),%edx
  801616:	89 cb                	mov    %ecx,%ebx
  801618:	89 cf                	mov    %ecx,%edi
  80161a:	89 ce                	mov    %ecx,%esi
  80161c:	cd 30                	int    $0x30

size_t
sys_e1000_receive(void *buffer)
{
    return syscall(SYS_e1000_receive, 0, (uint32_t)buffer, 0, 0, 0, 0);
}
  80161e:	8b 1c 24             	mov    (%esp),%ebx
  801621:	8b 74 24 04          	mov    0x4(%esp),%esi
  801625:	8b 7c 24 08          	mov    0x8(%esp),%edi
  801629:	89 ec                	mov    %ebp,%esp
  80162b:	5d                   	pop    %ebp
  80162c:	c3                   	ret    

0080162d <_Z16sys_program_readiPvijj>:

ssize_t
sys_program_read(envid_t dst_env, void *va,
		 int programid, size_t offset, size_t len)
{
  80162d:	55                   	push   %ebp
  80162e:	89 e5                	mov    %esp,%ebp
  801630:	83 ec 0c             	sub    $0xc,%esp
  801633:	89 1c 24             	mov    %ebx,(%esp)
  801636:	89 74 24 04          	mov    %esi,0x4(%esp)
  80163a:	89 7c 24 08          	mov    %edi,0x8(%esp)
		  "d" (a1),
		  "c" (a2),
		  "b" (a3),
		  "D" (a4),
		  "S" (a5)
		: "cc", "memory");
  80163e:	b8 10 00 00 00       	mov    $0x10,%eax
  801643:	8b 75 18             	mov    0x18(%ebp),%esi
  801646:	8b 7d 14             	mov    0x14(%ebp),%edi
  801649:	8b 5d 10             	mov    0x10(%ebp),%ebx
  80164c:	8b 4d 0c             	mov    0xc(%ebp),%ecx
  80164f:	8b 55 08             	mov    0x8(%ebp),%edx
  801652:	cd 30                	int    $0x30
ssize_t
sys_program_read(envid_t dst_env, void *va,
		 int programid, size_t offset, size_t len)
{
	return syscall(SYS_program_read, 0, dst_env, (uintptr_t) va, programid, offset, len);
}
  801654:	8b 1c 24             	mov    (%esp),%ebx
  801657:	8b 74 24 04          	mov    0x4(%esp),%esi
  80165b:	8b 7c 24 08          	mov    0x8(%esp),%edi
  80165f:	89 ec                	mov    %ebp,%esp
  801661:	5d                   	pop    %ebp
  801662:	c3                   	ret    
	...

00801664 <_ZL7duppageijb>:
// Returns: 0 on success, < 0 on error.
// It is also OK to panic on error.
//
static int
duppage(envid_t envid, unsigned pn, bool shared = false)
{
  801664:	55                   	push   %ebp
  801665:	89 e5                	mov    %esp,%ebp
  801667:	83 ec 38             	sub    $0x38,%esp
  80166a:	89 5d f4             	mov    %ebx,-0xc(%ebp)
  80166d:	89 75 f8             	mov    %esi,-0x8(%ebp)
  801670:	89 7d fc             	mov    %edi,-0x4(%ebp)
    // if a page is already COW, then it will be duplicated COW, even if using
    // sfork.  If we are meant to share, then we no longer want to get rid
    // of the write permissions.  Finally, if we aren't meant to share,
    // then we must be COW, so all writable pages are COW

    if((vpt[pn] & PTE_SHARE))
  801673:	8b 1c 95 00 00 80 ef 	mov    -0x10800000(,%edx,4),%ebx
  80167a:	f6 c7 04             	test   $0x4,%bh
  80167d:	74 31                	je     8016b0 <_ZL7duppageijb+0x4c>
    {
        r = sys_page_map(0, (void *)(pn * PGSIZE), envid, (void *)(pn * PGSIZE), vpt[pn] & PTE_SYSCALL);
  80167f:	8b 0c 95 00 00 80 ef 	mov    -0x10800000(,%edx,4),%ecx
  801686:	c1 e2 0c             	shl    $0xc,%edx
  801689:	81 e1 07 0e 00 00    	and    $0xe07,%ecx
  80168f:	89 4c 24 10          	mov    %ecx,0x10(%esp)
  801693:	89 54 24 0c          	mov    %edx,0xc(%esp)
  801697:	89 44 24 08          	mov    %eax,0x8(%esp)
  80169b:	89 54 24 04          	mov    %edx,0x4(%esp)
  80169f:	c7 04 24 00 00 00 00 	movl   $0x0,(%esp)
  8016a6:	e8 e4 fb ff ff       	call   80128f <_Z12sys_page_mapiPviS_i>
        return r;
  8016ab:	e9 8c 00 00 00       	jmp    80173c <_ZL7duppageijb+0xd8>
    }


    if((vpt[pn] & PTE_COW))
  8016b0:	8b 34 95 00 00 80 ef 	mov    -0x10800000(,%edx,4),%esi
        perm = PTE_COW;
  8016b7:	bb 00 08 00 00       	mov    $0x800,%ebx
        r = sys_page_map(0, (void *)(pn * PGSIZE), envid, (void *)(pn * PGSIZE), vpt[pn] & PTE_SYSCALL);
        return r;
    }


    if((vpt[pn] & PTE_COW))
  8016bc:	f7 c6 00 08 00 00    	test   $0x800,%esi
  8016c2:	75 2a                	jne    8016ee <_ZL7duppageijb+0x8a>
        perm = PTE_COW;
    else if (shared)
  8016c4:	84 c9                	test   %cl,%cl
  8016c6:	74 0f                	je     8016d7 <_ZL7duppageijb+0x73>
        perm = PTE_SHARED | ((vpt[pn] & PTE_W)?PTE_W:0);
  8016c8:	8b 1c 95 00 00 80 ef 	mov    -0x10800000(,%edx,4),%ebx
  8016cf:	83 e3 02             	and    $0x2,%ebx
  8016d2:	80 cf 02             	or     $0x2,%bh
  8016d5:	eb 17                	jmp    8016ee <_ZL7duppageijb+0x8a>
    else if (vpt[pn] & PTE_W)
  8016d7:	8b 0c 95 00 00 80 ef 	mov    -0x10800000(,%edx,4),%ecx
  8016de:	83 e1 02             	and    $0x2,%ecx
//
static int
duppage(envid_t envid, unsigned pn, bool shared = false)
{
	int r;
    int perm = 0;
  8016e1:	83 f9 01             	cmp    $0x1,%ecx
  8016e4:	19 db                	sbb    %ebx,%ebx
  8016e6:	f7 d3                	not    %ebx
  8016e8:	81 e3 00 08 00 00    	and    $0x800,%ebx
        perm = PTE_SHARED | ((vpt[pn] & PTE_W)?PTE_W:0);
    else if (vpt[pn] & PTE_W)
        perm = PTE_COW;

    // map the page with the given permissions in our new environment
	if((r = sys_page_map(0, (void *)(pn * PGSIZE), envid, (void *)(pn * PGSIZE), PTE_P|PTE_U|perm)))
  8016ee:	89 df                	mov    %ebx,%edi
  8016f0:	83 cf 05             	or     $0x5,%edi
  8016f3:	89 d6                	mov    %edx,%esi
  8016f5:	c1 e6 0c             	shl    $0xc,%esi
  8016f8:	89 7c 24 10          	mov    %edi,0x10(%esp)
  8016fc:	89 74 24 0c          	mov    %esi,0xc(%esp)
  801700:	89 44 24 08          	mov    %eax,0x8(%esp)
  801704:	89 74 24 04          	mov    %esi,0x4(%esp)
  801708:	c7 04 24 00 00 00 00 	movl   $0x0,(%esp)
  80170f:	e8 7b fb ff ff       	call   80128f <_Z12sys_page_mapiPviS_i>
  801714:	85 c0                	test   %eax,%eax
  801716:	75 24                	jne    80173c <_ZL7duppageijb+0xd8>
        return r;

    // remap it in our own environment (to make sure it is COW)
    if(perm)
  801718:	85 db                	test   %ebx,%ebx
  80171a:	74 20                	je     80173c <_ZL7duppageijb+0xd8>
	    if((r = sys_page_map(0, (void *)(pn * PGSIZE), 0, (void *)(pn * PGSIZE), PTE_P|PTE_U|perm)))
  80171c:	89 7c 24 10          	mov    %edi,0x10(%esp)
  801720:	89 74 24 0c          	mov    %esi,0xc(%esp)
  801724:	c7 44 24 08 00 00 00 	movl   $0x0,0x8(%esp)
  80172b:	00 
  80172c:	89 74 24 04          	mov    %esi,0x4(%esp)
  801730:	c7 04 24 00 00 00 00 	movl   $0x0,(%esp)
  801737:	e8 53 fb ff ff       	call   80128f <_Z12sys_page_mapiPviS_i>
            return r;

    return 0;
}
  80173c:	8b 5d f4             	mov    -0xc(%ebp),%ebx
  80173f:	8b 75 f8             	mov    -0x8(%ebp),%esi
  801742:	8b 7d fc             	mov    -0x4(%ebp),%edi
  801745:	89 ec                	mov    %ebp,%esp
  801747:	5d                   	pop    %ebp
  801748:	c3                   	ret    

00801749 <_ZL7pgfaultP10UTrapframe>:
// Custom page fault handler - if faulting page is copy-on-write,
// map in our own private writable copy and call resume(utf).
//
static void
pgfault(struct UTrapframe *utf)
{
  801749:	55                   	push   %ebp
  80174a:	89 e5                	mov    %esp,%ebp
  80174c:	83 ec 28             	sub    $0x28,%esp
  80174f:	89 5d f8             	mov    %ebx,-0x8(%ebp)
  801752:	89 75 fc             	mov    %esi,-0x4(%ebp)
  801755:	8b 5d 08             	mov    0x8(%ebp),%ebx
    void *addr = (void *)utf->utf_fault_va;
  801758:	8b 33                	mov    (%ebx),%esi

    // page number
    uint32_t pn = (uint32_t)addr >> 12;
    
    // if this isn't a COW case, just return
    if (!(err & FEC_W) || !(vpt[pn] & PTE_COW))
  80175a:	f6 43 04 02          	testb  $0x2,0x4(%ebx)
  80175e:	0f 84 ff 00 00 00    	je     801863 <_ZL7pgfaultP10UTrapframe+0x11a>
	// Check that the faulting access was (1) a write, and (2) to a
	// copy-on-write page.  If not, return 0.
	// Hint: Use vpd and vpt.

    // page number
    uint32_t pn = (uint32_t)addr >> 12;
  801764:	89 f0                	mov    %esi,%eax
  801766:	c1 e8 0c             	shr    $0xc,%eax
    
    // if this isn't a COW case, just return
    if (!(err & FEC_W) || !(vpt[pn] & PTE_COW))
  801769:	8b 04 85 00 00 80 ef 	mov    -0x10800000(,%eax,4),%eax
  801770:	f6 c4 08             	test   $0x8,%ah
  801773:	0f 84 ea 00 00 00    	je     801863 <_ZL7pgfaultP10UTrapframe+0x11a>

    // now we need to copy the page and update our mapping so we can write to it
    addr = ROUNDDOWN(addr, PGSIZE);

    // allocate a new page in PFTEMP
    if ((r = sys_page_alloc(0, PFTEMP, PTE_P|PTE_U|PTE_W)) < 0)
  801779:	c7 44 24 08 07 00 00 	movl   $0x7,0x8(%esp)
  801780:	00 
  801781:	c7 44 24 04 00 f0 7f 	movl   $0x7ff000,0x4(%esp)
  801788:	00 
  801789:	c7 04 24 00 00 00 00 	movl   $0x0,(%esp)
  801790:	e8 9b fa ff ff       	call   801230 <_Z14sys_page_allociPvi>
  801795:	85 c0                	test   %eax,%eax
  801797:	79 20                	jns    8017b9 <_ZL7pgfaultP10UTrapframe+0x70>
        panic("sys_page_alloc: %e", r);
  801799:	89 44 24 0c          	mov    %eax,0xc(%esp)
  80179d:	c7 44 24 08 bf 54 80 	movl   $0x8054bf,0x8(%esp)
  8017a4:	00 
  8017a5:	c7 44 24 04 2c 00 00 	movl   $0x2c,0x4(%esp)
  8017ac:	00 
  8017ad:	c7 04 24 d2 54 80 00 	movl   $0x8054d2,(%esp)
  8017b4:	e8 57 ee ff ff       	call   800610 <_Z6_panicPKciS0_z>
	// Hint:
	//   You should make three system calls.
	//   No need to explicitly delete the old page's mapping.

    // now we need to copy the page and update our mapping so we can write to it
    addr = ROUNDDOWN(addr, PGSIZE);
  8017b9:	81 e6 00 f0 ff ff    	and    $0xfffff000,%esi
    // allocate a new page in PFTEMP
    if ((r = sys_page_alloc(0, PFTEMP, PTE_P|PTE_U|PTE_W)) < 0)
        panic("sys_page_alloc: %e", r);

    // copy everything over to it
    memcpy(PFTEMP, addr, PGSIZE);
  8017bf:	c7 44 24 08 00 10 00 	movl   $0x1000,0x8(%esp)
  8017c6:	00 
  8017c7:	89 74 24 04          	mov    %esi,0x4(%esp)
  8017cb:	c7 04 24 00 f0 7f 00 	movl   $0x7ff000,(%esp)
  8017d2:	e8 90 f7 ff ff       	call   800f67 <memcpy>

    // now remap our page at addr to PFTEMP, with write permissions
    if ((r = sys_page_map(0, PFTEMP, 0, addr, PTE_P|PTE_U|PTE_W)) < 0)
  8017d7:	c7 44 24 10 07 00 00 	movl   $0x7,0x10(%esp)
  8017de:	00 
  8017df:	89 74 24 0c          	mov    %esi,0xc(%esp)
  8017e3:	c7 44 24 08 00 00 00 	movl   $0x0,0x8(%esp)
  8017ea:	00 
  8017eb:	c7 44 24 04 00 f0 7f 	movl   $0x7ff000,0x4(%esp)
  8017f2:	00 
  8017f3:	c7 04 24 00 00 00 00 	movl   $0x0,(%esp)
  8017fa:	e8 90 fa ff ff       	call   80128f <_Z12sys_page_mapiPviS_i>
  8017ff:	85 c0                	test   %eax,%eax
  801801:	79 20                	jns    801823 <_ZL7pgfaultP10UTrapframe+0xda>
        panic("sys_page_map: %e", r);
  801803:	89 44 24 0c          	mov    %eax,0xc(%esp)
  801807:	c7 44 24 08 dd 54 80 	movl   $0x8054dd,0x8(%esp)
  80180e:	00 
  80180f:	c7 44 24 04 33 00 00 	movl   $0x33,0x4(%esp)
  801816:	00 
  801817:	c7 04 24 d2 54 80 00 	movl   $0x8054d2,(%esp)
  80181e:	e8 ed ed ff ff       	call   800610 <_Z6_panicPKciS0_z>

    // and unmap PFTEMP
    if ((r = sys_page_unmap(0, PFTEMP)) < 0)
  801823:	c7 44 24 04 00 f0 7f 	movl   $0x7ff000,0x4(%esp)
  80182a:	00 
  80182b:	c7 04 24 00 00 00 00 	movl   $0x0,(%esp)
  801832:	e8 b6 fa ff ff       	call   8012ed <_Z14sys_page_unmapiPv>
  801837:	85 c0                	test   %eax,%eax
  801839:	79 20                	jns    80185b <_ZL7pgfaultP10UTrapframe+0x112>
        panic("sys_page_unmap: %e", r);
  80183b:	89 44 24 0c          	mov    %eax,0xc(%esp)
  80183f:	c7 44 24 08 ee 54 80 	movl   $0x8054ee,0x8(%esp)
  801846:	00 
  801847:	c7 44 24 04 37 00 00 	movl   $0x37,0x4(%esp)
  80184e:	00 
  80184f:	c7 04 24 d2 54 80 00 	movl   $0x8054d2,(%esp)
  801856:	e8 b5 ed ff ff       	call   800610 <_Z6_panicPKciS0_z>
    resume(utf);
  80185b:	89 1c 24             	mov    %ebx,(%esp)
  80185e:	e8 8d 33 00 00       	call   804bf0 <resume>
}
  801863:	8b 5d f8             	mov    -0x8(%ebp),%ebx
  801866:	8b 75 fc             	mov    -0x4(%ebp),%esi
  801869:	89 ec                	mov    %ebp,%esp
  80186b:	5d                   	pop    %ebp
  80186c:	c3                   	ret    

0080186d <_Z4forkv>:
//   Neither user exception stack should ever be marked copy-on-write,
//   so you must allocate a new page for the child's user exception stack.
//
envid_t
fork(void)
{
  80186d:	55                   	push   %ebp
  80186e:	89 e5                	mov    %esp,%ebp
  801870:	57                   	push   %edi
  801871:	56                   	push   %esi
  801872:	53                   	push   %ebx
  801873:	83 ec 1c             	sub    $0x1c,%esp
    int r;                          // errors
    int pn = UTOP / PGSIZE - 1;     // page number
    

    add_pgfault_handler(pgfault);
  801876:	c7 04 24 49 17 80 00 	movl   $0x801749,(%esp)
  80187d:	e8 99 32 00 00       	call   804b1b <_Z19add_pgfault_handlerPFvP10UTrapframeE>
	envid_t ret;
	__asm __volatile("int %2"
		: "=a" (ret)
		: "a" (SYS_exofork),
		  "i" (T_SYSCALL)
	);
  801882:	be 07 00 00 00       	mov    $0x7,%esi
  801887:	89 f0                	mov    %esi,%eax
  801889:	cd 30                	int    $0x30
  80188b:	89 c6                	mov    %eax,%esi
  80188d:	89 c7                	mov    %eax,%edi

    // fork new environment
    envid_t envid = sys_exofork();
    if (envid < 0)
  80188f:	85 c0                	test   %eax,%eax
  801891:	79 20                	jns    8018b3 <_Z4forkv+0x46>
        panic("sys_exofork: %e", envid);
  801893:	89 44 24 0c          	mov    %eax,0xc(%esp)
  801897:	c7 44 24 08 01 55 80 	movl   $0x805501,0x8(%esp)
  80189e:	00 
  80189f:	c7 44 24 04 87 00 00 	movl   $0x87,0x4(%esp)
  8018a6:	00 
  8018a7:	c7 04 24 d2 54 80 00 	movl   $0x8054d2,(%esp)
  8018ae:	e8 5d ed ff ff       	call   800610 <_Z6_panicPKciS0_z>
        thisenv = &envs[ENVX(sys_getenvid())];
        return 0;
    }

    // loop over all pages in the user address space (below the stack)
    while (--pn >= 0)
  8018b3:	bb fe ef 0e 00       	mov    $0xeeffe,%ebx
    envid_t envid = sys_exofork();
    if (envid < 0)
        panic("sys_exofork: %e", envid);

    // if we are the child, update thisenv and exit
    if (envid == 0)
  8018b8:	85 c0                	test   %eax,%eax
  8018ba:	75 1c                	jne    8018d8 <_Z4forkv+0x6b>
    {
        thisenv = &envs[ENVX(sys_getenvid())];
  8018bc:	e8 07 f9 ff ff       	call   8011c8 <_Z12sys_getenvidv>
  8018c1:	25 ff 03 00 00       	and    $0x3ff,%eax
  8018c6:	6b c0 78             	imul   $0x78,%eax,%eax
  8018c9:	05 00 00 00 ef       	add    $0xef000000,%eax
  8018ce:	a3 00 70 80 00       	mov    %eax,0x807000
        return 0;
  8018d3:	e9 de 00 00 00       	jmp    8019b6 <_Z4forkv+0x149>
    // loop over all pages in the user address space (below the stack)
    while (--pn >= 0)
    {
        // if the page directory present bit isn't set, we can
        // skip all of the pages of that directory entry
        if(!(vpd[pn >> 10] & PTE_P))
  8018d8:	89 d8                	mov    %ebx,%eax
  8018da:	c1 f8 0a             	sar    $0xa,%eax
  8018dd:	8b 04 85 00 e0 bb ef 	mov    -0x10442000(,%eax,4),%eax
  8018e4:	a8 01                	test   $0x1,%al
  8018e6:	75 08                	jne    8018f0 <_Z4forkv+0x83>
            pn = (pn >> 10) << 10;
  8018e8:	81 e3 00 fc ff ff    	and    $0xfffffc00,%ebx
  8018ee:	eb 19                	jmp    801909 <_Z4forkv+0x9c>

        // if the page table entry is set, then we need to 
        // duplicate the page
        else if (vpt[pn] & PTE_P)
  8018f0:	8b 04 9d 00 00 80 ef 	mov    -0x10800000(,%ebx,4),%eax
  8018f7:	a8 01                	test   $0x1,%al
  8018f9:	74 0e                	je     801909 <_Z4forkv+0x9c>
            duppage(envid, pn);
  8018fb:	b9 00 00 00 00       	mov    $0x0,%ecx
  801900:	89 da                	mov    %ebx,%edx
  801902:	89 f8                	mov    %edi,%eax
  801904:	e8 5b fd ff ff       	call   801664 <_ZL7duppageijb>
        thisenv = &envs[ENVX(sys_getenvid())];
        return 0;
    }

    // loop over all pages in the user address space (below the stack)
    while (--pn >= 0)
  801909:	83 eb 01             	sub    $0x1,%ebx
  80190c:	79 ca                	jns    8018d8 <_Z4forkv+0x6b>
            duppage(envid, pn);
    }


    // set the pgfault_upcall of the child
    if ((r = sys_env_set_pgfault_upcall(envid, (void *)thisenv->env_pgfault_upcall)))
  80190e:	a1 00 70 80 00       	mov    0x807000,%eax
  801913:	8b 40 5c             	mov    0x5c(%eax),%eax
  801916:	89 44 24 04          	mov    %eax,0x4(%esp)
  80191a:	89 34 24             	mov    %esi,(%esp)
  80191d:	e8 43 fb ff ff       	call   801465 <_Z26sys_env_set_pgfault_upcalliPv>
  801922:	85 c0                	test   %eax,%eax
  801924:	74 20                	je     801946 <_Z4forkv+0xd9>
        panic("sys_env_set_pgfault_upcall: %e", r);
  801926:	89 44 24 0c          	mov    %eax,0xc(%esp)
  80192a:	c7 44 24 08 28 55 80 	movl   $0x805528,0x8(%esp)
  801931:	00 
  801932:	c7 44 24 04 a1 00 00 	movl   $0xa1,0x4(%esp)
  801939:	00 
  80193a:	c7 04 24 d2 54 80 00 	movl   $0x8054d2,(%esp)
  801941:	e8 ca ec ff ff       	call   800610 <_Z6_panicPKciS0_z>

    // give the child an exception stack page
    if ((r = sys_page_alloc(envid, (void *)(UXSTACKTOP-PGSIZE), PTE_P | PTE_U | PTE_W)) < 0)
  801946:	c7 44 24 08 07 00 00 	movl   $0x7,0x8(%esp)
  80194d:	00 
  80194e:	c7 44 24 04 00 f0 ff 	movl   $0xeefff000,0x4(%esp)
  801955:	ee 
  801956:	89 34 24             	mov    %esi,(%esp)
  801959:	e8 d2 f8 ff ff       	call   801230 <_Z14sys_page_allociPvi>
  80195e:	85 c0                	test   %eax,%eax
  801960:	79 20                	jns    801982 <_Z4forkv+0x115>
        panic("sys_page_alloc: %e", r);
  801962:	89 44 24 0c          	mov    %eax,0xc(%esp)
  801966:	c7 44 24 08 bf 54 80 	movl   $0x8054bf,0x8(%esp)
  80196d:	00 
  80196e:	c7 44 24 04 a5 00 00 	movl   $0xa5,0x4(%esp)
  801975:	00 
  801976:	c7 04 24 d2 54 80 00 	movl   $0x8054d2,(%esp)
  80197d:	e8 8e ec ff ff       	call   800610 <_Z6_panicPKciS0_z>

    // and let the child go free!
    if ((r = sys_env_set_status(envid, ENV_RUNNABLE)) < 0)
  801982:	c7 44 24 04 01 00 00 	movl   $0x1,0x4(%esp)
  801989:	00 
  80198a:	89 34 24             	mov    %esi,(%esp)
  80198d:	e8 b9 f9 ff ff       	call   80134b <_Z18sys_env_set_statusii>
  801992:	85 c0                	test   %eax,%eax
  801994:	79 20                	jns    8019b6 <_Z4forkv+0x149>
        panic("sys_env_set_status: %e", r);
  801996:	89 44 24 0c          	mov    %eax,0xc(%esp)
  80199a:	c7 44 24 08 11 55 80 	movl   $0x805511,0x8(%esp)
  8019a1:	00 
  8019a2:	c7 44 24 04 a9 00 00 	movl   $0xa9,0x4(%esp)
  8019a9:	00 
  8019aa:	c7 04 24 d2 54 80 00 	movl   $0x8054d2,(%esp)
  8019b1:	e8 5a ec ff ff       	call   800610 <_Z6_panicPKciS0_z>

    return envid;
}
  8019b6:	89 f0                	mov    %esi,%eax
  8019b8:	83 c4 1c             	add    $0x1c,%esp
  8019bb:	5b                   	pop    %ebx
  8019bc:	5e                   	pop    %esi
  8019bd:	5f                   	pop    %edi
  8019be:	5d                   	pop    %ebp
  8019bf:	c3                   	ret    

008019c0 <_Z5sforkv>:

// Challenge!
int
sfork(void)
{
  8019c0:	55                   	push   %ebp
  8019c1:	89 e5                	mov    %esp,%ebp
  8019c3:	57                   	push   %edi
  8019c4:	56                   	push   %esi
  8019c5:	53                   	push   %ebx
  8019c6:	83 ec 2c             	sub    $0x2c,%esp
    int r; 

    add_pgfault_handler(pgfault);
  8019c9:	c7 04 24 49 17 80 00 	movl   $0x801749,(%esp)
  8019d0:	e8 46 31 00 00       	call   804b1b <_Z19add_pgfault_handlerPFvP10UTrapframeE>
  8019d5:	be 07 00 00 00       	mov    $0x7,%esi
  8019da:	89 f0                	mov    %esi,%eax
  8019dc:	cd 30                	int    $0x30
  8019de:	89 c6                	mov    %eax,%esi
  8019e0:	89 c7                	mov    %eax,%edi

    // make a new child
    envid_t envid = sys_exofork();
    if (envid < 0)
  8019e2:	85 c0                	test   %eax,%eax
  8019e4:	79 20                	jns    801a06 <_Z5sforkv+0x46>
        panic("sys_exofork: %e", envid);
  8019e6:	89 44 24 0c          	mov    %eax,0xc(%esp)
  8019ea:	c7 44 24 08 01 55 80 	movl   $0x805501,0x8(%esp)
  8019f1:	00 
  8019f2:	c7 44 24 04 b9 00 00 	movl   $0xb9,0x4(%esp)
  8019f9:	00 
  8019fa:	c7 04 24 d2 54 80 00 	movl   $0x8054d2,(%esp)
  801a01:	e8 0a ec ff ff       	call   800610 <_Z6_panicPKciS0_z>

    // unlike above, no need to set thisenv for child
    if (envid == 0)
  801a06:	85 c0                	test   %eax,%eax
  801a08:	0f 84 40 01 00 00    	je     801b4e <_Z5sforkv+0x18e>

static __inline uint32_t
read_esp(void)
{
        uint32_t esp;
        __asm __volatile("movl %%esp,%0" : "=r" (esp));
  801a0e:	89 e3                	mov    %esp,%ebx
        return 0;
    
    // we only want to share the pages below the current stack page
    int pn = (read_esp() >> 12) - 1;
  801a10:	c1 eb 0c             	shr    $0xc,%ebx
  801a13:	83 eb 01             	sub    $0x1,%ebx
  801a16:	89 5d e4             	mov    %ebx,-0x1c(%ebp)

    // remember the lowest stack page so we can mark all of them COW
    int pn_start = pn;

    // same as in fork
    while (--pn >= 0)
  801a19:	eb 31                	jmp    801a4c <_Z5sforkv+0x8c>
    {
        if(!(vpd[pn >> 10] & PTE_P))
  801a1b:	89 d8                	mov    %ebx,%eax
  801a1d:	c1 f8 0a             	sar    $0xa,%eax
  801a20:	8b 04 85 00 e0 bb ef 	mov    -0x10442000(,%eax,4),%eax
  801a27:	a8 01                	test   $0x1,%al
  801a29:	75 08                	jne    801a33 <_Z5sforkv+0x73>
            pn = (pn >> 10) << 10;
  801a2b:	81 e3 00 fc ff ff    	and    $0xfffffc00,%ebx
  801a31:	eb 19                	jmp    801a4c <_Z5sforkv+0x8c>
        else if (vpt[pn] & PTE_P)
  801a33:	8b 04 9d 00 00 80 ef 	mov    -0x10800000(,%ebx,4),%eax
  801a3a:	a8 01                	test   $0x1,%al
  801a3c:	74 0e                	je     801a4c <_Z5sforkv+0x8c>
            duppage(envid, pn, true);
  801a3e:	b9 01 00 00 00       	mov    $0x1,%ecx
  801a43:	89 da                	mov    %ebx,%edx
  801a45:	89 f8                	mov    %edi,%eax
  801a47:	e8 18 fc ff ff       	call   801664 <_ZL7duppageijb>

    // remember the lowest stack page so we can mark all of them COW
    int pn_start = pn;

    // same as in fork
    while (--pn >= 0)
  801a4c:	83 eb 01             	sub    $0x1,%ebx
  801a4f:	79 ca                	jns    801a1b <_Z5sforkv+0x5b>
        else if (vpt[pn] & PTE_P)
            duppage(envid, pn, true);
    }

    // same as above, but duppage isn't flagged to share pages
    for(int i = pn_start; i < (int)(UTOP / PGSIZE - 1); i++)
  801a51:	81 7d e4 fe ef 0e 00 	cmpl   $0xeeffe,-0x1c(%ebp)
  801a58:	7f 3f                	jg     801a99 <_Z5sforkv+0xd9>
  801a5a:	8b 5d e4             	mov    -0x1c(%ebp),%ebx
    {
        if(!(vpd[i >> 10] & PTE_P))
  801a5d:	89 d8                	mov    %ebx,%eax
  801a5f:	c1 f8 0a             	sar    $0xa,%eax
  801a62:	8b 04 85 00 e0 bb ef 	mov    -0x10442000(,%eax,4),%eax
  801a69:	a8 01                	test   $0x1,%al
  801a6b:	75 08                	jne    801a75 <_Z5sforkv+0xb5>
            i = (i >> 10) << 10;
  801a6d:	81 e3 00 fc ff ff    	and    $0xfffffc00,%ebx
  801a73:	eb 19                	jmp    801a8e <_Z5sforkv+0xce>
        else if (vpt[i] & PTE_P)
  801a75:	8b 04 9d 00 00 80 ef 	mov    -0x10800000(,%ebx,4),%eax
  801a7c:	a8 01                	test   $0x1,%al
  801a7e:	74 0e                	je     801a8e <_Z5sforkv+0xce>
            duppage(envid, i);
  801a80:	b9 00 00 00 00       	mov    $0x0,%ecx
  801a85:	89 da                	mov    %ebx,%edx
  801a87:	89 f8                	mov    %edi,%eax
  801a89:	e8 d6 fb ff ff       	call   801664 <_ZL7duppageijb>
        else if (vpt[pn] & PTE_P)
            duppage(envid, pn, true);
    }

    // same as above, but duppage isn't flagged to share pages
    for(int i = pn_start; i < (int)(UTOP / PGSIZE - 1); i++)
  801a8e:	83 c3 01             	add    $0x1,%ebx
  801a91:	81 fb fe ef 0e 00    	cmp    $0xeeffe,%ebx
  801a97:	7e c4                	jle    801a5d <_Z5sforkv+0x9d>
        else if (vpt[i] & PTE_P)
            duppage(envid, i);
    }

    // same as in fork!
    if ((r = sys_env_set_pgfault_upcall(envid, (void *)THISENV->env_pgfault_upcall)))
  801a99:	e8 2a f7 ff ff       	call   8011c8 <_Z12sys_getenvidv>
  801a9e:	25 ff 03 00 00       	and    $0x3ff,%eax
  801aa3:	6b c0 78             	imul   $0x78,%eax,%eax
  801aa6:	05 0c 00 00 ef       	add    $0xef00000c,%eax
  801aab:	8b 40 50             	mov    0x50(%eax),%eax
  801aae:	89 44 24 04          	mov    %eax,0x4(%esp)
  801ab2:	89 34 24             	mov    %esi,(%esp)
  801ab5:	e8 ab f9 ff ff       	call   801465 <_Z26sys_env_set_pgfault_upcalliPv>
  801aba:	85 c0                	test   %eax,%eax
  801abc:	74 20                	je     801ade <_Z5sforkv+0x11e>
        panic("sys_env_set_pgfault_upcall: %e", r);
  801abe:	89 44 24 0c          	mov    %eax,0xc(%esp)
  801ac2:	c7 44 24 08 28 55 80 	movl   $0x805528,0x8(%esp)
  801ac9:	00 
  801aca:	c7 44 24 04 d9 00 00 	movl   $0xd9,0x4(%esp)
  801ad1:	00 
  801ad2:	c7 04 24 d2 54 80 00 	movl   $0x8054d2,(%esp)
  801ad9:	e8 32 eb ff ff       	call   800610 <_Z6_panicPKciS0_z>

    if ((r = sys_page_alloc(envid, (void *)(UXSTACKTOP-PGSIZE), PTE_P | PTE_U | PTE_W)) < 0)
  801ade:	c7 44 24 08 07 00 00 	movl   $0x7,0x8(%esp)
  801ae5:	00 
  801ae6:	c7 44 24 04 00 f0 ff 	movl   $0xeefff000,0x4(%esp)
  801aed:	ee 
  801aee:	89 34 24             	mov    %esi,(%esp)
  801af1:	e8 3a f7 ff ff       	call   801230 <_Z14sys_page_allociPvi>
  801af6:	85 c0                	test   %eax,%eax
  801af8:	79 20                	jns    801b1a <_Z5sforkv+0x15a>
        panic("sys_page_alloc: %e", r);
  801afa:	89 44 24 0c          	mov    %eax,0xc(%esp)
  801afe:	c7 44 24 08 bf 54 80 	movl   $0x8054bf,0x8(%esp)
  801b05:	00 
  801b06:	c7 44 24 04 dc 00 00 	movl   $0xdc,0x4(%esp)
  801b0d:	00 
  801b0e:	c7 04 24 d2 54 80 00 	movl   $0x8054d2,(%esp)
  801b15:	e8 f6 ea ff ff       	call   800610 <_Z6_panicPKciS0_z>
    if ((r = sys_env_set_status(envid, ENV_RUNNABLE)) < 0)
  801b1a:	c7 44 24 04 01 00 00 	movl   $0x1,0x4(%esp)
  801b21:	00 
  801b22:	89 34 24             	mov    %esi,(%esp)
  801b25:	e8 21 f8 ff ff       	call   80134b <_Z18sys_env_set_statusii>
  801b2a:	85 c0                	test   %eax,%eax
  801b2c:	79 20                	jns    801b4e <_Z5sforkv+0x18e>
        panic("sys_env_set_status: %e", r);
  801b2e:	89 44 24 0c          	mov    %eax,0xc(%esp)
  801b32:	c7 44 24 08 11 55 80 	movl   $0x805511,0x8(%esp)
  801b39:	00 
  801b3a:	c7 44 24 04 de 00 00 	movl   $0xde,0x4(%esp)
  801b41:	00 
  801b42:	c7 04 24 d2 54 80 00 	movl   $0x8054d2,(%esp)
  801b49:	e8 c2 ea ff ff       	call   800610 <_Z6_panicPKciS0_z>

    return envid;
    
}
  801b4e:	89 f0                	mov    %esi,%eax
  801b50:	83 c4 2c             	add    $0x2c,%esp
  801b53:	5b                   	pop    %ebx
  801b54:	5e                   	pop    %esi
  801b55:	5f                   	pop    %edi
  801b56:	5d                   	pop    %ebp
  801b57:	c3                   	ret    

00801b58 <_ZL24utemp_addr_to_stack_addrPv>:
//
// Shift an address from the UTEMP page to the corresponding value in the
// normal stack page (top address USTACKTOP).
//
static uintptr_t utemp_addr_to_stack_addr(void *ptr)
{
  801b58:	55                   	push   %ebp
  801b59:	89 e5                	mov    %esp,%ebp
  801b5b:	83 ec 18             	sub    $0x18,%esp
	uintptr_t addr = (uintptr_t) ptr;
	assert(ptr >= UTEMP && ptr < (char *) UTEMP + PGSIZE);
  801b5e:	8d 90 00 00 c0 ff    	lea    -0x400000(%eax),%edx
  801b64:	81 fa ff 0f 00 00    	cmp    $0xfff,%edx
  801b6a:	76 24                	jbe    801b90 <_ZL24utemp_addr_to_stack_addrPv+0x38>
  801b6c:	c7 44 24 0c 48 55 80 	movl   $0x805548,0xc(%esp)
  801b73:	00 
  801b74:	c7 44 24 08 76 55 80 	movl   $0x805576,0x8(%esp)
  801b7b:	00 
  801b7c:	c7 44 24 04 25 00 00 	movl   $0x25,0x4(%esp)
  801b83:	00 
  801b84:	c7 04 24 8b 55 80 00 	movl   $0x80558b,(%esp)
  801b8b:	e8 80 ea ff ff       	call   800610 <_Z6_panicPKciS0_z>
	return USTACKTOP - PGSIZE + PGOFF(addr);
  801b90:	25 ff 0f 00 00       	and    $0xfff,%eax
  801b95:	2d 00 30 00 11       	sub    $0x11003000,%eax
}
  801b9a:	c9                   	leave  
  801b9b:	c3                   	ret    

00801b9c <_Z10spawn_readiPvijji>:
//

int
spawn_read(envid_t dst_env, void *va, int programid, size_t offset, 
           size_t len, int fs_read)
{
  801b9c:	55                   	push   %ebp
  801b9d:	89 e5                	mov    %esp,%ebp
  801b9f:	57                   	push   %edi
  801ba0:	56                   	push   %esi
  801ba1:	53                   	push   %ebx
  801ba2:	83 ec 3c             	sub    $0x3c,%esp
  801ba5:	8b 75 0c             	mov    0xc(%ebp),%esi
  801ba8:	8b 7d 10             	mov    0x10(%ebp),%edi
  801bab:	8b 45 14             	mov    0x14(%ebp),%eax
    int r;
    if(!fs_read)
  801bae:	83 7d 1c 00          	cmpl   $0x0,0x1c(%ebp)
  801bb2:	75 25                	jne    801bd9 <_Z10spawn_readiPvijji+0x3d>
        return sys_program_read(dst_env, va, programid, offset, len);
  801bb4:	8b 55 18             	mov    0x18(%ebp),%edx
  801bb7:	89 54 24 10          	mov    %edx,0x10(%esp)
  801bbb:	89 44 24 0c          	mov    %eax,0xc(%esp)
  801bbf:	89 7c 24 08          	mov    %edi,0x8(%esp)
  801bc3:	89 74 24 04          	mov    %esi,0x4(%esp)
  801bc7:	8b 45 08             	mov    0x8(%ebp),%eax
  801bca:	89 04 24             	mov    %eax,(%esp)
  801bcd:	e8 5b fa ff ff       	call   80162d <_Z16sys_program_readiPvijj>
  801bd2:	89 c3                	mov    %eax,%ebx
  801bd4:	e9 7d 01 00 00       	jmp    801d56 <_Z10spawn_readiPvijji+0x1ba>
    if((r = seek(programid, offset)))
  801bd9:	89 44 24 04          	mov    %eax,0x4(%esp)
  801bdd:	89 3c 24             	mov    %edi,(%esp)
  801be0:	e8 46 0d 00 00       	call   80292b <_Z4seekii>
  801be5:	89 c3                	mov    %eax,%ebx
  801be7:	85 c0                	test   %eax,%eax
  801be9:	0f 85 67 01 00 00    	jne    801d56 <_Z10spawn_readiPvijji+0x1ba>
        return r;
    if((uint32_t)va % PGSIZE)
  801bef:	89 75 e0             	mov    %esi,-0x20(%ebp)
  801bf2:	89 f2                	mov    %esi,%edx
  801bf4:	81 e2 ff 0f 00 00    	and    $0xfff,%edx
  801bfa:	89 55 e4             	mov    %edx,-0x1c(%ebp)
  801bfd:	0f 84 ab 00 00 00    	je     801cae <_Z10spawn_readiPvijji+0x112>
    {
        uint32_t bytes = MIN(PGSIZE - (uint32_t)va % PGSIZE, len);
        if((r = sys_page_alloc(thisenv->env_id, UTEMP, PTE_U | PTE_W|PTE_P)))
  801c03:	a1 00 70 80 00       	mov    0x807000,%eax
  801c08:	8b 40 04             	mov    0x4(%eax),%eax
  801c0b:	c7 44 24 08 07 00 00 	movl   $0x7,0x8(%esp)
  801c12:	00 
  801c13:	c7 44 24 04 00 00 40 	movl   $0x400000,0x4(%esp)
  801c1a:	00 
  801c1b:	89 04 24             	mov    %eax,(%esp)
  801c1e:	e8 0d f6 ff ff       	call   801230 <_Z14sys_page_allociPvi>
  801c23:	85 c0                	test   %eax,%eax
  801c25:	0f 85 29 01 00 00    	jne    801d54 <_Z10spawn_readiPvijji+0x1b8>
        return sys_program_read(dst_env, va, programid, offset, len);
    if((r = seek(programid, offset)))
        return r;
    if((uint32_t)va % PGSIZE)
    {
        uint32_t bytes = MIN(PGSIZE - (uint32_t)va % PGSIZE, len);
  801c2b:	66 b8 00 10          	mov    $0x1000,%ax
  801c2f:	2b 45 e4             	sub    -0x1c(%ebp),%eax
        if((r = sys_page_alloc(thisenv->env_id, UTEMP, PTE_U | PTE_W|PTE_P)))
  801c32:	3b 45 18             	cmp    0x18(%ebp),%eax
  801c35:	0f 47 45 18          	cmova  0x18(%ebp),%eax
  801c39:	89 45 dc             	mov    %eax,-0x24(%ebp)
            return r;
        if((r = readn(programid,(char *)UTEMP+(uint32_t)va%PGSIZE, bytes))<0 ||
  801c3c:	89 44 24 08          	mov    %eax,0x8(%esp)
  801c40:	8b 45 e4             	mov    -0x1c(%ebp),%eax
  801c43:	05 00 00 40 00       	add    $0x400000,%eax
  801c48:	89 44 24 04          	mov    %eax,0x4(%esp)
  801c4c:	89 3c 24             	mov    %edi,(%esp)
  801c4f:	e8 14 0c 00 00       	call   802868 <_Z5readniPvj>
  801c54:	89 c6                	mov    %eax,%esi
  801c56:	85 c0                	test   %eax,%eax
  801c58:	78 39                	js     801c93 <_Z10spawn_readiPvijji+0xf7>
  801c5a:	c7 44 24 10 07 00 00 	movl   $0x7,0x10(%esp)
  801c61:	00 
           (r = sys_page_map(0, UTEMP, dst_env, (void *)ROUNDDOWN(va, PGSIZE), PTE_U | PTE_W | PTE_P)))
  801c62:	8b 45 e0             	mov    -0x20(%ebp),%eax
  801c65:	25 00 f0 ff ff       	and    $0xfffff000,%eax
    if((uint32_t)va % PGSIZE)
    {
        uint32_t bytes = MIN(PGSIZE - (uint32_t)va % PGSIZE, len);
        if((r = sys_page_alloc(thisenv->env_id, UTEMP, PTE_U | PTE_W|PTE_P)))
            return r;
        if((r = readn(programid,(char *)UTEMP+(uint32_t)va%PGSIZE, bytes))<0 ||
  801c6a:	89 44 24 0c          	mov    %eax,0xc(%esp)
  801c6e:	8b 45 08             	mov    0x8(%ebp),%eax
  801c71:	89 44 24 08          	mov    %eax,0x8(%esp)
  801c75:	c7 44 24 04 00 00 40 	movl   $0x400000,0x4(%esp)
  801c7c:	00 
  801c7d:	c7 04 24 00 00 00 00 	movl   $0x0,(%esp)
  801c84:	e8 06 f6 ff ff       	call   80128f <_Z12sys_page_mapiPviS_i>
  801c89:	89 c6                	mov    %eax,%esi
  801c8b:	85 c0                	test   %eax,%eax
  801c8d:	0f 84 cd 00 00 00    	je     801d60 <_Z10spawn_readiPvijji+0x1c4>
           (r = sys_page_map(0, UTEMP, dst_env, (void *)ROUNDDOWN(va, PGSIZE), PTE_U | PTE_W | PTE_P)))
        {
            sys_page_unmap(0, UTEMP);
  801c93:	c7 44 24 04 00 00 40 	movl   $0x400000,0x4(%esp)
  801c9a:	00 
  801c9b:	c7 04 24 00 00 00 00 	movl   $0x0,(%esp)
  801ca2:	e8 46 f6 ff ff       	call   8012ed <_Z14sys_page_unmapiPv>
            return r;
  801ca7:	89 f3                	mov    %esi,%ebx
  801ca9:	e9 a8 00 00 00       	jmp    801d56 <_Z10spawn_readiPvijji+0x1ba>
        sys_page_unmap(0, UTEMP);
        va = ROUNDUP(va, PGSIZE);
        len -= bytes;
    }

    for(char *i = (char *)va; i < len + (char *)va; i += PGSIZE)
  801cae:	89 75 e4             	mov    %esi,-0x1c(%ebp)
  801cb1:	8b 55 18             	mov    0x18(%ebp),%edx
  801cb4:	01 f2                	add    %esi,%edx
  801cb6:	89 55 e0             	mov    %edx,-0x20(%ebp)
  801cb9:	39 f2                	cmp    %esi,%edx
  801cbb:	0f 86 95 00 00 00    	jbe    801d56 <_Z10spawn_readiPvijji+0x1ba>
// Returns the new environment's ID on success, and < 0 on error.
// If an error occurs, any new environment is destroyed.
//

int
spawn_read(envid_t dst_env, void *va, int programid, size_t offset, 
  801cc1:	8b 75 18             	mov    0x18(%ebp),%esi
    }

    for(char *i = (char *)va; i < len + (char *)va; i += PGSIZE)
    {
        uint32_t bytes = (uint32_t)MIN((uint32_t)va + len - (uint32_t)i, (uint32_t)PGSIZE);
        if((r = sys_page_alloc(0, UTEMP, PTE_U | PTE_P|PTE_W)))
  801cc4:	c7 44 24 08 07 00 00 	movl   $0x7,0x8(%esp)
  801ccb:	00 
  801ccc:	c7 44 24 04 00 00 40 	movl   $0x400000,0x4(%esp)
  801cd3:	00 
  801cd4:	c7 04 24 00 00 00 00 	movl   $0x0,(%esp)
  801cdb:	e8 50 f5 ff ff       	call   801230 <_Z14sys_page_allociPvi>
  801ce0:	89 c3                	mov    %eax,%ebx
  801ce2:	85 c0                	test   %eax,%eax
  801ce4:	75 70                	jne    801d56 <_Z10spawn_readiPvijji+0x1ba>
            return r;
        if((r = readn(programid, UTEMP, bytes)) < 0 ||
  801ce6:	81 fe 00 10 00 00    	cmp    $0x1000,%esi
  801cec:	b8 00 10 00 00       	mov    $0x1000,%eax
  801cf1:	0f 46 c6             	cmovbe %esi,%eax
  801cf4:	89 44 24 08          	mov    %eax,0x8(%esp)
  801cf8:	c7 44 24 04 00 00 40 	movl   $0x400000,0x4(%esp)
  801cff:	00 
  801d00:	89 3c 24             	mov    %edi,(%esp)
  801d03:	e8 60 0b 00 00       	call   802868 <_Z5readniPvj>
  801d08:	89 c3                	mov    %eax,%ebx
  801d0a:	85 c0                	test   %eax,%eax
  801d0c:	78 30                	js     801d3e <_Z10spawn_readiPvijji+0x1a2>
  801d0e:	c7 44 24 10 07 00 00 	movl   $0x7,0x10(%esp)
  801d15:	00 
  801d16:	8b 45 e4             	mov    -0x1c(%ebp),%eax
  801d19:	89 44 24 0c          	mov    %eax,0xc(%esp)
  801d1d:	8b 55 08             	mov    0x8(%ebp),%edx
  801d20:	89 54 24 08          	mov    %edx,0x8(%esp)
  801d24:	c7 44 24 04 00 00 40 	movl   $0x400000,0x4(%esp)
  801d2b:	00 
  801d2c:	c7 04 24 00 00 00 00 	movl   $0x0,(%esp)
  801d33:	e8 57 f5 ff ff       	call   80128f <_Z12sys_page_mapiPviS_i>
  801d38:	89 c3                	mov    %eax,%ebx
  801d3a:	85 c0                	test   %eax,%eax
  801d3c:	74 50                	je     801d8e <_Z10spawn_readiPvijji+0x1f2>
           (r = sys_page_map(0, UTEMP, dst_env, i, PTE_U | PTE_W | PTE_P)))
        {
            sys_page_unmap(0, UTEMP);
  801d3e:	c7 44 24 04 00 00 40 	movl   $0x400000,0x4(%esp)
  801d45:	00 
  801d46:	c7 04 24 00 00 00 00 	movl   $0x0,(%esp)
  801d4d:	e8 9b f5 ff ff       	call   8012ed <_Z14sys_page_unmapiPv>
            return r;
  801d52:	eb 02                	jmp    801d56 <_Z10spawn_readiPvijji+0x1ba>
        return r;
    if((uint32_t)va % PGSIZE)
    {
        uint32_t bytes = MIN(PGSIZE - (uint32_t)va % PGSIZE, len);
        if((r = sys_page_alloc(thisenv->env_id, UTEMP, PTE_U | PTE_W|PTE_P)))
            return r;
  801d54:	89 c3                	mov    %eax,%ebx
            return r;
        }
        sys_page_unmap(0, UTEMP);
    }
    return 0;
}
  801d56:	89 d8                	mov    %ebx,%eax
  801d58:	83 c4 3c             	add    $0x3c,%esp
  801d5b:	5b                   	pop    %ebx
  801d5c:	5e                   	pop    %esi
  801d5d:	5f                   	pop    %edi
  801d5e:	5d                   	pop    %ebp
  801d5f:	c3                   	ret    
           (r = sys_page_map(0, UTEMP, dst_env, (void *)ROUNDDOWN(va, PGSIZE), PTE_U | PTE_W | PTE_P)))
        {
            sys_page_unmap(0, UTEMP);
            return r;
        }
        sys_page_unmap(0, UTEMP);
  801d60:	c7 44 24 04 00 00 40 	movl   $0x400000,0x4(%esp)
  801d67:	00 
  801d68:	c7 04 24 00 00 00 00 	movl   $0x0,(%esp)
  801d6f:	e8 79 f5 ff ff       	call   8012ed <_Z14sys_page_unmapiPv>
        va = ROUNDUP(va, PGSIZE);
  801d74:	8b 75 e0             	mov    -0x20(%ebp),%esi
  801d77:	81 c6 ff 0f 00 00    	add    $0xfff,%esi
  801d7d:	81 e6 00 f0 ff ff    	and    $0xfffff000,%esi
        len -= bytes;
  801d83:	8b 45 dc             	mov    -0x24(%ebp),%eax
  801d86:	29 45 18             	sub    %eax,0x18(%ebp)
  801d89:	e9 20 ff ff ff       	jmp    801cae <_Z10spawn_readiPvijji+0x112>
           (r = sys_page_map(0, UTEMP, dst_env, i, PTE_U | PTE_W | PTE_P)))
        {
            sys_page_unmap(0, UTEMP);
            return r;
        }
        sys_page_unmap(0, UTEMP);
  801d8e:	c7 44 24 04 00 00 40 	movl   $0x400000,0x4(%esp)
  801d95:	00 
  801d96:	c7 04 24 00 00 00 00 	movl   $0x0,(%esp)
  801d9d:	e8 4b f5 ff ff       	call   8012ed <_Z14sys_page_unmapiPv>
        sys_page_unmap(0, UTEMP);
        va = ROUNDUP(va, PGSIZE);
        len -= bytes;
    }

    for(char *i = (char *)va; i < len + (char *)va; i += PGSIZE)
  801da2:	81 45 e4 00 10 00 00 	addl   $0x1000,-0x1c(%ebp)
  801da9:	81 ee 00 10 00 00    	sub    $0x1000,%esi
  801daf:	8b 55 e4             	mov    -0x1c(%ebp),%edx
  801db2:	39 55 e0             	cmp    %edx,-0x20(%ebp)
  801db5:	0f 87 09 ff ff ff    	ja     801cc4 <_Z10spawn_readiPvijji+0x128>
  801dbb:	eb 99                	jmp    801d56 <_Z10spawn_readiPvijji+0x1ba>

00801dbd <_Z5spawnPKcPS0_>:
    return 0;
}

envid_t
spawn(const char *prog, const char **argv)
{
  801dbd:	55                   	push   %ebp
  801dbe:	89 e5                	mov    %esp,%ebp
  801dc0:	81 ec b8 02 00 00    	sub    $0x2b8,%esp
  801dc6:	89 5d f4             	mov    %ebx,-0xc(%ebp)
  801dc9:	89 75 f8             	mov    %esi,-0x8(%ebp)
  801dcc:	89 7d fc             	mov    %edi,-0x4(%ebp)
  801dcf:	8b 5d 08             	mov    0x8(%ebp),%ebx
	// Unfortunately, you cannot 'read' into a child address space,
	// so you'll need to code the 'read' case differently.
	//
	// Also, make sure you close the file descriptor, if any,
	// before returning from spawn().
    int fs_load = prog[0] == '/';
  801dd2:	80 3b 2f             	cmpb   $0x2f,(%ebx)
  801dd5:	0f 94 c0             	sete   %al
  801dd8:	0f b6 c0             	movzbl %al,%eax
  801ddb:	89 c6                	mov    %eax,%esi
    memset(elf_buf, 0, sizeof(elf_buf)); // ensure stack is writable
  801ddd:	c7 44 24 08 00 02 00 	movl   $0x200,0x8(%esp)
  801de4:	00 
  801de5:	c7 44 24 04 00 00 00 	movl   $0x0,0x4(%esp)
  801dec:	00 
  801ded:	8d 85 a4 fd ff ff    	lea    -0x25c(%ebp),%eax
  801df3:	89 04 24             	mov    %eax,(%esp)
  801df6:	e8 96 f0 ff ff       	call   800e91 <memset>
    if(fs_load)
  801dfb:	85 f6                	test   %esi,%esi
  801dfd:	74 41                	je     801e40 <_Z5spawnPKcPS0_+0x83>
    {
        if ((progid = open(prog, O_RDONLY)) < 0)
  801dff:	c7 44 24 04 00 00 00 	movl   $0x0,0x4(%esp)
  801e06:	00 
  801e07:	89 1c 24             	mov    %ebx,(%esp)
  801e0a:	e8 4f 16 00 00       	call   80345e <_Z4openPKci>
  801e0f:	89 c3                	mov    %eax,%ebx
  801e11:	85 c0                	test   %eax,%eax
  801e13:	0f 88 4e 05 00 00    	js     802367 <_Z5spawnPKcPS0_+0x5aa>
            return progid;
        if (readn(progid, elf,sizeof(elf_buf)) != sizeof elf_buf)
  801e19:	c7 44 24 08 00 02 00 	movl   $0x200,0x8(%esp)
  801e20:	00 
  801e21:	8d 85 a4 fd ff ff    	lea    -0x25c(%ebp),%eax
  801e27:	89 44 24 04          	mov    %eax,0x4(%esp)
  801e2b:	89 1c 24             	mov    %ebx,(%esp)
  801e2e:	e8 35 0a 00 00       	call   802868 <_Z5readniPvj>
  801e33:	3d 00 02 00 00       	cmp    $0x200,%eax
  801e38:	0f 85 11 05 00 00    	jne    80234f <_Z5spawnPKcPS0_+0x592>
  801e3e:	eb 51                	jmp    801e91 <_Z5spawnPKcPS0_+0xd4>
            return -E_NOT_EXEC;
    }
    else
    {
        // Read ELF header from the kernel's binary collection.
        if ((progid = sys_program_lookup(prog, strlen(prog))) < 0)
  801e40:	89 1c 24             	mov    %ebx,(%esp)
  801e43:	e8 c8 ee ff ff       	call   800d10 <_Z6strlenPKc>
  801e48:	89 44 24 04          	mov    %eax,0x4(%esp)
  801e4c:	89 1c 24             	mov    %ebx,(%esp)
  801e4f:	e8 04 f7 ff ff       	call   801558 <_Z18sys_program_lookupPKcj>
  801e54:	89 c3                	mov    %eax,%ebx
  801e56:	85 c0                	test   %eax,%eax
  801e58:	0f 88 09 05 00 00    	js     802367 <_Z5spawnPKcPS0_+0x5aa>
            return progid;
        if (sys_program_read(0, elf, progid, 0, sizeof(elf_buf)) != sizeof(elf_buf, 0))
  801e5e:	c7 44 24 10 00 02 00 	movl   $0x200,0x10(%esp)
  801e65:	00 
  801e66:	c7 44 24 0c 00 00 00 	movl   $0x0,0xc(%esp)
  801e6d:	00 
  801e6e:	89 44 24 08          	mov    %eax,0x8(%esp)
  801e72:	8d 85 a4 fd ff ff    	lea    -0x25c(%ebp),%eax
  801e78:	89 44 24 04          	mov    %eax,0x4(%esp)
  801e7c:	c7 04 24 00 00 00 00 	movl   $0x0,(%esp)
  801e83:	e8 a5 f7 ff ff       	call   80162d <_Z16sys_program_readiPvijj>
  801e88:	83 f8 04             	cmp    $0x4,%eax
  801e8b:	0f 85 c5 04 00 00    	jne    802356 <_Z5spawnPKcPS0_+0x599>
            return -E_NOT_EXEC;
    }
    if (elf->e_magic != ELF_MAGIC) {
  801e91:	8b 85 a4 fd ff ff    	mov    -0x25c(%ebp),%eax
  801e97:	3d 7f 45 4c 46       	cmp    $0x464c457f,%eax
  801e9c:	74 22                	je     801ec0 <_Z5spawnPKcPS0_+0x103>
        cprintf("elf magic %08x want %08x\n", elf->e_magic, ELF_MAGIC);
  801e9e:	c7 44 24 08 7f 45 4c 	movl   $0x464c457f,0x8(%esp)
  801ea5:	46 
  801ea6:	89 44 24 04          	mov    %eax,0x4(%esp)
  801eaa:	c7 04 24 97 55 80 00 	movl   $0x805597,(%esp)
  801eb1:	e8 78 e8 ff ff       	call   80072e <_Z7cprintfPKcz>
        return -E_NOT_EXEC;
  801eb6:	bb f7 ff ff ff       	mov    $0xfffffff7,%ebx
  801ebb:	e9 a7 04 00 00       	jmp    802367 <_Z5spawnPKcPS0_+0x5aa>
	//   although you won't use that fact here.)
	// - Check out sys_env_set_trapframe and init_stack.
	//
	

    ph = (struct Proghdr *) ((uint8_t *) elf + elf->e_phoff);
  801ec0:	8b 95 c0 fd ff ff    	mov    -0x240(%ebp),%edx
  801ec6:	89 95 80 fd ff ff    	mov    %edx,-0x280(%ebp)
    struct Proghdr *eph = ph + elf->e_phnum;
  801ecc:	0f b7 85 d0 fd ff ff 	movzwl -0x230(%ebp),%eax
  801ed3:	66 89 85 76 fd ff ff 	mov    %ax,-0x28a(%ebp)
  801eda:	ba 07 00 00 00       	mov    $0x7,%edx
  801edf:	89 d0                	mov    %edx,%eax
  801ee1:	cd 30                	int    $0x30
  801ee3:	89 85 88 fd ff ff    	mov    %eax,-0x278(%ebp)
  801ee9:	89 85 78 fd ff ff    	mov    %eax,-0x288(%ebp)
    
    envid_t envid;
    if ((envid = sys_exofork()) < 0)
  801eef:	85 c0                	test   %eax,%eax
  801ef1:	0f 88 66 04 00 00    	js     80235d <_Z5spawnPKcPS0_+0x5a0>
        return envid;
    
    struct Trapframe tf;
    memcpy(&tf, (void *)&envs[ENVX(envid)].env_tf, sizeof(struct Trapframe));
  801ef7:	25 ff 03 00 00       	and    $0x3ff,%eax
  801efc:	6b c0 78             	imul   $0x78,%eax,%eax
  801eff:	05 14 00 00 ef       	add    $0xef000014,%eax
  801f04:	c7 44 24 08 44 00 00 	movl   $0x44,0x8(%esp)
  801f0b:	00 
  801f0c:	89 44 24 04          	mov    %eax,0x4(%esp)
  801f10:	8d 45 a4             	lea    -0x5c(%ebp),%eax
  801f13:	89 04 24             	mov    %eax,(%esp)
  801f16:	e8 4c f0 ff ff       	call   800f67 <memcpy>
	uintptr_t *argv_store;

	// Count the number of arguments (argc)
	// and the total amount of space needed for strings (string_size).
	string_size = 0;
	for (argc = 0; argv[argc] != 0; argc++)
  801f1b:	8b 55 0c             	mov    0xc(%ebp),%edx
  801f1e:	8b 02                	mov    (%edx),%eax
  801f20:	85 c0                	test   %eax,%eax
  801f22:	0f 84 93 00 00 00    	je     801fbb <_Z5spawnPKcPS0_+0x1fe>
	char *string_store;
	uintptr_t *argv_store;

	// Count the number of arguments (argc)
	// and the total amount of space needed for strings (string_size).
	string_size = 0;
  801f28:	bf 00 00 00 00       	mov    $0x0,%edi
	for (argc = 0; argv[argc] != 0; argc++)
  801f2d:	c7 85 90 fd ff ff 00 	movl   $0x0,-0x270(%ebp)
  801f34:	00 00 00 
  801f37:	89 9d 8c fd ff ff    	mov    %ebx,-0x274(%ebp)
  801f3d:	89 b5 84 fd ff ff    	mov    %esi,-0x27c(%ebp)
  801f43:	bb 00 00 00 00       	mov    $0x0,%ebx
  801f48:	89 d6                	mov    %edx,%esi
		string_size += strlen(argv[argc]) + 1;
  801f4a:	89 04 24             	mov    %eax,(%esp)
  801f4d:	e8 be ed ff ff       	call   800d10 <_Z6strlenPKc>
  801f52:	8d 7c 38 01          	lea    0x1(%eax,%edi,1),%edi
	uintptr_t *argv_store;

	// Count the number of arguments (argc)
	// and the total amount of space needed for strings (string_size).
	string_size = 0;
	for (argc = 0; argv[argc] != 0; argc++)
  801f56:	83 c3 01             	add    $0x1,%ebx
  801f59:	89 da                	mov    %ebx,%edx
  801f5b:	8d 0c 9d 00 00 00 00 	lea    0x0(,%ebx,4),%ecx
  801f62:	8b 04 9e             	mov    (%esi,%ebx,4),%eax
  801f65:	85 c0                	test   %eax,%eax
  801f67:	75 e1                	jne    801f4a <_Z5spawnPKcPS0_+0x18d>
  801f69:	8b b5 84 fd ff ff    	mov    -0x27c(%ebp),%esi
  801f6f:	89 9d 90 fd ff ff    	mov    %ebx,-0x270(%ebp)
  801f75:	8b 9d 8c fd ff ff    	mov    -0x274(%ebp),%ebx
  801f7b:	89 95 7c fd ff ff    	mov    %edx,-0x284(%ebp)
  801f81:	89 8d 70 fd ff ff    	mov    %ecx,-0x290(%ebp)
	// into the temporary page at UTEMP.
	// Later, we'll remap that page into the child environment
	// at (USTACKTOP - PGSIZE).

	// strings are topmost on the stack.
	string_store = (char *) UTEMP + PGSIZE - string_size;
  801f87:	f7 df                	neg    %edi
  801f89:	81 c7 00 10 40 00    	add    $0x401000,%edi

	// argv is below that.  There's one argument pointer per argument, plus
	// a null pointer.
	argv_store = (uintptr_t *) ROUNDDOWN(string_store, 4) - (argc + 1);
  801f8f:	89 fa                	mov    %edi,%edx
  801f91:	83 e2 fc             	and    $0xfffffffc,%edx
  801f94:	8b 85 7c fd ff ff    	mov    -0x284(%ebp),%eax
  801f9a:	f7 d0                	not    %eax
  801f9c:	8d 04 82             	lea    (%edx,%eax,4),%eax
  801f9f:	89 85 8c fd ff ff    	mov    %eax,-0x274(%ebp)

	// Make sure that argv, strings, and the 2 words that hold 'argc'
	// and 'argv' themselves will all fit in a single stack page.
	if ((void*) (argv_store - 2) < (void*) UTEMP)
  801fa5:	83 e8 08             	sub    $0x8,%eax
  801fa8:	89 85 84 fd ff ff    	mov    %eax,-0x27c(%ebp)
  801fae:	3d ff ff 3f 00       	cmp    $0x3fffff,%eax
  801fb3:	0f 86 78 01 00 00    	jbe    802131 <_Z5spawnPKcPS0_+0x374>
  801fb9:	eb 37                	jmp    801ff2 <_Z5spawnPKcPS0_+0x235>
	uintptr_t *argv_store;

	// Count the number of arguments (argc)
	// and the total amount of space needed for strings (string_size).
	string_size = 0;
	for (argc = 0; argv[argc] != 0; argc++)
  801fbb:	c7 85 70 fd ff ff 00 	movl   $0x0,-0x290(%ebp)
  801fc2:	00 00 00 
  801fc5:	c7 85 7c fd ff ff 00 	movl   $0x0,-0x284(%ebp)
  801fcc:	00 00 00 
  801fcf:	c7 85 90 fd ff ff 00 	movl   $0x0,-0x270(%ebp)
  801fd6:	00 00 00 
	// a null pointer.
	argv_store = (uintptr_t *) ROUNDDOWN(string_store, 4) - (argc + 1);

	// Make sure that argv, strings, and the 2 words that hold 'argc'
	// and 'argv' themselves will all fit in a single stack page.
	if ((void*) (argv_store - 2) < (void*) UTEMP)
  801fd9:	c7 85 84 fd ff ff f4 	movl   $0x400ff4,-0x27c(%ebp)
  801fe0:	0f 40 00 
	// strings are topmost on the stack.
	string_store = (char *) UTEMP + PGSIZE - string_size;

	// argv is below that.  There's one argument pointer per argument, plus
	// a null pointer.
	argv_store = (uintptr_t *) ROUNDDOWN(string_store, 4) - (argc + 1);
  801fe3:	c7 85 8c fd ff ff fc 	movl   $0x400ffc,-0x274(%ebp)
  801fea:	0f 40 00 
	// into the temporary page at UTEMP.
	// Later, we'll remap that page into the child environment
	// at (USTACKTOP - PGSIZE).

	// strings are topmost on the stack.
	string_store = (char *) UTEMP + PGSIZE - string_size;
  801fed:	bf 00 10 40 00       	mov    $0x401000,%edi
	// and 'argv' themselves will all fit in a single stack page.
	if ((void*) (argv_store - 2) < (void*) UTEMP)
		return -E_NO_MEM;

	// Allocate a page at UTEMP.
	if ((r = sys_page_alloc(0, (void*) UTEMP, PTE_P|PTE_U|PTE_W)) < 0)
  801ff2:	c7 44 24 08 07 00 00 	movl   $0x7,0x8(%esp)
  801ff9:	00 
  801ffa:	c7 44 24 04 00 00 40 	movl   $0x400000,0x4(%esp)
  802001:	00 
  802002:	c7 04 24 00 00 00 00 	movl   $0x0,(%esp)
  802009:	e8 22 f2 ff ff       	call   801230 <_Z14sys_page_allociPvi>
  80200e:	85 c0                	test   %eax,%eax
  802010:	0f 88 1b 01 00 00    	js     802131 <_Z5spawnPKcPS0_+0x374>
		return r;

	// Store the 'argc' and 'argv' parameters themselves
	// below 'argv_store' on the stack.  These parameters will be passed
	// to umain().
	argv_store[-2] = argc;
  802016:	8b 95 7c fd ff ff    	mov    -0x284(%ebp),%edx
  80201c:	8b 85 84 fd ff ff    	mov    -0x27c(%ebp),%eax
  802022:	89 10                	mov    %edx,(%eax)
	argv_store[-1] = utemp_addr_to_stack_addr(argv_store);
  802024:	8b 85 8c fd ff ff    	mov    -0x274(%ebp),%eax
  80202a:	e8 29 fb ff ff       	call   801b58 <_ZL24utemp_addr_to_stack_addrPv>
  80202f:	8b 95 8c fd ff ff    	mov    -0x274(%ebp),%edx
  802035:	89 42 fc             	mov    %eax,-0x4(%edx)
	// and initialize 'argv_store[i]' to point at argument string i
	// in the child's address space.
	// Then set 'argv_store[argc]' to 0 to null-terminate the args array.
	// LAB 4: Your code here.

	for (int i = 0; i < argc; i++)
  802038:	83 bd 90 fd ff ff 00 	cmpl   $0x0,-0x270(%ebp)
  80203f:	7e 71                	jle    8020b2 <_Z5spawnPKcPS0_+0x2f5>
  802041:	c7 85 7c fd ff ff 00 	movl   $0x0,-0x284(%ebp)
  802048:	00 00 00 
  80204b:	89 9d 6c fd ff ff    	mov    %ebx,-0x294(%ebp)
  802051:	89 b5 68 fd ff ff    	mov    %esi,-0x298(%ebp)
  802057:	be 00 00 00 00       	mov    $0x0,%esi
  80205c:	8b 5d 0c             	mov    0xc(%ebp),%ebx
    {
        // store the start of the word in the next argv
        argv_store[i] = utemp_addr_to_stack_addr(string_store);
  80205f:	89 f8                	mov    %edi,%eax
  802061:	e8 f2 fa ff ff       	call   801b58 <_ZL24utemp_addr_to_stack_addrPv>
    }
    return 0;
}

envid_t
spawn(const char *prog, const char **argv)
  802066:	89 f1                	mov    %esi,%ecx
	// LAB 4: Your code here.

	for (int i = 0; i < argc; i++)
    {
        // store the start of the word in the next argv
        argv_store[i] = utemp_addr_to_stack_addr(string_store);
  802068:	8b 95 8c fd ff ff    	mov    -0x274(%ebp),%edx
  80206e:	89 04 b2             	mov    %eax,(%edx,%esi,4)

        // store each character in the string_store
		for(int j = 0; argv[i][j] != 0; j++)
  802071:	8b 04 b3             	mov    (%ebx,%esi,4),%eax
  802074:	0f b6 00             	movzbl (%eax),%eax
  802077:	84 c0                	test   %al,%al
  802079:	74 18                	je     802093 <_Z5spawnPKcPS0_+0x2d6>
  80207b:	ba 00 00 00 00       	mov    $0x0,%edx
        {
            *string_store = argv[i][j];
  802080:	88 07                	mov    %al,(%edi)
            string_store++;
  802082:	83 c7 01             	add    $0x1,%edi
    {
        // store the start of the word in the next argv
        argv_store[i] = utemp_addr_to_stack_addr(string_store);

        // store each character in the string_store
		for(int j = 0; argv[i][j] != 0; j++)
  802085:	83 c2 01             	add    $0x1,%edx
  802088:	8b 04 8b             	mov    (%ebx,%ecx,4),%eax
  80208b:	0f b6 04 10          	movzbl (%eax,%edx,1),%eax
  80208f:	84 c0                	test   %al,%al
  802091:	75 ed                	jne    802080 <_Z5spawnPKcPS0_+0x2c3>
        {
            *string_store = argv[i][j];
            string_store++;
        }
        // terminate the string
        *string_store = '\0';
  802093:	c6 07 00             	movb   $0x0,(%edi)
	// and initialize 'argv_store[i]' to point at argument string i
	// in the child's address space.
	// Then set 'argv_store[argc]' to 0 to null-terminate the args array.
	// LAB 4: Your code here.

	for (int i = 0; i < argc; i++)
  802096:	83 c6 01             	add    $0x1,%esi
  802099:	3b b5 90 fd ff ff    	cmp    -0x270(%ebp),%esi
  80209f:	7d 05                	jge    8020a6 <_Z5spawnPKcPS0_+0x2e9>
            *string_store = argv[i][j];
            string_store++;
        }
        // terminate the string
        *string_store = '\0';
        string_store++;
  8020a1:	83 c7 01             	add    $0x1,%edi
  8020a4:	eb b9                	jmp    80205f <_Z5spawnPKcPS0_+0x2a2>
  8020a6:	8b 9d 6c fd ff ff    	mov    -0x294(%ebp),%ebx
  8020ac:	8b b5 68 fd ff ff    	mov    -0x298(%ebp),%esi
    }   
    
    // null-terminate the whole argv array
    argv_store[argc] = 0;
  8020b2:	8b 95 8c fd ff ff    	mov    -0x274(%ebp),%edx
  8020b8:	8b 85 70 fd ff ff    	mov    -0x290(%ebp),%eax
  8020be:	c7 04 02 00 00 00 00 	movl   $0x0,(%edx,%eax,1)

	// Set *init_esp to the initial stack pointer for the child:
	// it should point at the "argc" value stored on the stack.
	// set the initial stack to point at argc
    *init_esp = utemp_addr_to_stack_addr(&argv_store[-2]);
  8020c5:	8b 85 84 fd ff ff    	mov    -0x27c(%ebp),%eax
  8020cb:	e8 88 fa ff ff       	call   801b58 <_ZL24utemp_addr_to_stack_addrPv>
  8020d0:	89 45 e0             	mov    %eax,-0x20(%ebp)


	// After completing the stack, map it into the child's address space
	// and unmap it from ours!
	if ((r = sys_page_map(0, UTEMP, child, (void*) (USTACKTOP - PGSIZE), PTE_P | PTE_U | PTE_W)) < 0)
  8020d3:	c7 44 24 10 07 00 00 	movl   $0x7,0x10(%esp)
  8020da:	00 
  8020db:	c7 44 24 0c 00 d0 ff 	movl   $0xeeffd000,0xc(%esp)
  8020e2:	ee 
  8020e3:	8b 85 88 fd ff ff    	mov    -0x278(%ebp),%eax
  8020e9:	89 44 24 08          	mov    %eax,0x8(%esp)
  8020ed:	c7 44 24 04 00 00 40 	movl   $0x400000,0x4(%esp)
  8020f4:	00 
  8020f5:	c7 04 24 00 00 00 00 	movl   $0x0,(%esp)
  8020fc:	e8 8e f1 ff ff       	call   80128f <_Z12sys_page_mapiPviS_i>
  802101:	85 c0                	test   %eax,%eax
  802103:	78 18                	js     80211d <_Z5spawnPKcPS0_+0x360>
		goto error;
	if ((r = sys_page_unmap(0, UTEMP)) < 0)
  802105:	c7 44 24 04 00 00 40 	movl   $0x400000,0x4(%esp)
  80210c:	00 
  80210d:	c7 04 24 00 00 00 00 	movl   $0x0,(%esp)
  802114:	e8 d4 f1 ff ff       	call   8012ed <_Z14sys_page_unmapiPv>
  802119:	85 c0                	test   %eax,%eax
  80211b:	79 14                	jns    802131 <_Z5spawnPKcPS0_+0x374>
		goto error;

	return 0;

error:
	sys_page_unmap(0, UTEMP);
  80211d:	c7 44 24 04 00 00 40 	movl   $0x400000,0x4(%esp)
  802124:	00 
  802125:	c7 04 24 00 00 00 00 	movl   $0x0,(%esp)
  80212c:	e8 bc f1 ff ff       	call   8012ed <_Z14sys_page_unmapiPv>
        return envid;
    
    struct Trapframe tf;
    memcpy(&tf, (void *)&envs[ENVX(envid)].env_tf, sizeof(struct Trapframe));
    init_stack(envid, argv, &tf.tf_esp);
    tf.tf_eip = elf->e_entry;
  802131:	8b 85 bc fd ff ff    	mov    -0x244(%ebp),%eax
  802137:	89 45 d4             	mov    %eax,-0x2c(%ebp)
    if ((r = sys_env_set_trapframe(envid, &tf)))
  80213a:	8d 45 a4             	lea    -0x5c(%ebp),%eax
  80213d:	89 44 24 04          	mov    %eax,0x4(%esp)
  802141:	8b 95 88 fd ff ff    	mov    -0x278(%ebp),%edx
  802147:	89 14 24             	mov    %edx,(%esp)
  80214a:	e8 b8 f2 ff ff       	call   801407 <_Z21sys_env_set_trapframeiP9Trapframe>
  80214f:	85 c0                	test   %eax,%eax
  802151:	0f 85 0e 02 00 00    	jne    802365 <_Z5spawnPKcPS0_+0x5a8>
	//   although you won't use that fact here.)
	// - Check out sys_env_set_trapframe and init_stack.
	//
	

    ph = (struct Proghdr *) ((uint8_t *) elf + elf->e_phoff);
  802157:	8d bd a4 fd ff ff    	lea    -0x25c(%ebp),%edi
  80215d:	03 bd 80 fd ff ff    	add    -0x280(%ebp),%edi
    struct Proghdr *eph = ph + elf->e_phnum;
  802163:	0f b7 85 76 fd ff ff 	movzwl -0x28a(%ebp),%eax
  80216a:	c1 e0 05             	shl    $0x5,%eax
  80216d:	8d 04 07             	lea    (%edi,%eax,1),%eax
  802170:	89 85 94 fd ff ff    	mov    %eax,-0x26c(%ebp)
    init_stack(envid, argv, &tf.tf_esp);
    tf.tf_eip = elf->e_entry;
    if ((r = sys_env_set_trapframe(envid, &tf)))
        return r;
    // iterate over each program header in the elf file
    for(; ph < eph; ++ph)
  802176:	39 c7                	cmp    %eax,%edi
  802178:	0f 83 25 01 00 00    	jae    8022a3 <_Z5spawnPKcPS0_+0x4e6>
  80217e:	89 9d 84 fd ff ff    	mov    %ebx,-0x27c(%ebp)
  802184:	89 b5 80 fd ff ff    	mov    %esi,-0x280(%ebp)
  80218a:	89 fe                	mov    %edi,%esi
  80218c:	8b bd 78 fd ff ff    	mov    -0x288(%ebp),%edi
    {
        // load it into memory if we are supposed to
        if (ph->p_type == ELF_PROG_LOAD)
  802192:	83 3e 01             	cmpl   $0x1,(%esi)
  802195:	0f 85 ed 00 00 00    	jne    802288 <_Z5spawnPKcPS0_+0x4cb>
{
    // identical to segment alloc for load_elf!
    int r;

    uintptr_t oldva = va;
    va = ROUNDDOWN(va, PGSIZE);
  80219b:	8b 5e 08             	mov    0x8(%esi),%ebx
  80219e:	81 e3 00 f0 ff ff    	and    $0xfffff000,%ebx
    len = ROUNDUP(va + len, PGSIZE);
  8021a4:	8b 46 14             	mov    0x14(%esi),%eax
  8021a7:	8d 84 03 ff 0f 00 00 	lea    0xfff(%ebx,%eax,1),%eax
  8021ae:	25 00 f0 ff ff       	and    $0xfffff000,%eax
  8021b3:	89 85 90 fd ff ff    	mov    %eax,-0x270(%ebp)

    // allocate pages for the whole region
    for (uintptr_t i = va; i < len; i+=PGSIZE)
  8021b9:	39 c3                	cmp    %eax,%ebx
  8021bb:	73 3c                	jae    8021f9 <_Z5spawnPKcPS0_+0x43c>
  8021bd:	89 b5 8c fd ff ff    	mov    %esi,-0x274(%ebp)
  8021c3:	89 c6                	mov    %eax,%esi
        if ((r = sys_page_alloc(dst_env, (void *)i, PTE_P|PTE_U|PTE_W)))
  8021c5:	c7 44 24 08 07 00 00 	movl   $0x7,0x8(%esp)
  8021cc:	00 
  8021cd:	89 5c 24 04          	mov    %ebx,0x4(%esp)
  8021d1:	89 3c 24             	mov    %edi,(%esp)
  8021d4:	e8 57 f0 ff ff       	call   801230 <_Z14sys_page_allociPvi>
  8021d9:	85 c0                	test   %eax,%eax
  8021db:	74 0c                	je     8021e9 <_Z5spawnPKcPS0_+0x42c>
  8021dd:	8b b5 8c fd ff ff    	mov    -0x274(%ebp),%esi
    {
        // load it into memory if we are supposed to
        if (ph->p_type == ELF_PROG_LOAD)
        {
            // allocate the region for it and read the data into the region
	        if ((r = segment_alloc(envid, ph->p_va, ph->p_memsz)) ||
  8021e3:	f7 d8                	neg    %eax
  8021e5:	75 4b                	jne    802232 <_Z5spawnPKcPS0_+0x475>
  8021e7:	eb 10                	jmp    8021f9 <_Z5spawnPKcPS0_+0x43c>
    uintptr_t oldva = va;
    va = ROUNDDOWN(va, PGSIZE);
    len = ROUNDUP(va + len, PGSIZE);

    // allocate pages for the whole region
    for (uintptr_t i = va; i < len; i+=PGSIZE)
  8021e9:	81 c3 00 10 00 00    	add    $0x1000,%ebx
  8021ef:	39 de                	cmp    %ebx,%esi
  8021f1:	77 d2                	ja     8021c5 <_Z5spawnPKcPS0_+0x408>
  8021f3:	8b b5 8c fd ff ff    	mov    -0x274(%ebp),%esi
    {
        // load it into memory if we are supposed to
        if (ph->p_type == ELF_PROG_LOAD)
        {
            // allocate the region for it and read the data into the region
	        if ((r = segment_alloc(envid, ph->p_va, ph->p_memsz)) ||
  8021f9:	8b 85 80 fd ff ff    	mov    -0x280(%ebp),%eax
  8021ff:	89 44 24 14          	mov    %eax,0x14(%esp)
  802203:	8b 46 10             	mov    0x10(%esi),%eax
  802206:	89 44 24 10          	mov    %eax,0x10(%esp)
  80220a:	8b 46 04             	mov    0x4(%esi),%eax
  80220d:	89 44 24 0c          	mov    %eax,0xc(%esp)
  802211:	8b 95 84 fd ff ff    	mov    -0x27c(%ebp),%edx
  802217:	89 54 24 08          	mov    %edx,0x8(%esp)
  80221b:	8b 46 08             	mov    0x8(%esi),%eax
  80221e:	89 44 24 04          	mov    %eax,0x4(%esp)
  802222:	89 3c 24             	mov    %edi,(%esp)
  802225:	e8 72 f9 ff ff       	call   801b9c <_Z10spawn_readiPvijji>
  80222a:	85 c0                	test   %eax,%eax
  80222c:	0f 89 44 01 00 00    	jns    802376 <_Z5spawnPKcPS0_+0x5b9>
  802232:	89 c7                	mov    %eax,%edi
               (r = spawn_read(envid, (void *)ph->p_va, progid, ph->p_offset, ph->p_filesz, fs_load)) < 0)
            {
                sys_env_destroy(envid);
  802234:	8b 85 88 fd ff ff    	mov    -0x278(%ebp),%eax
  80223a:	89 04 24             	mov    %eax,(%esp)
  80223d:	e8 29 ef ff ff       	call   80116b <_Z15sys_env_destroyi>
                return r;
  802242:	89 fb                	mov    %edi,%ebx
  802244:	e9 1e 01 00 00       	jmp    802367 <_Z5spawnPKcPS0_+0x5aa>
            }

            // if the region is not flagged writeable, remove write permissions
            int perm = (ph->p_flags & ELF_PROG_FLAG_WRITE)?PTE_W:0;
            if(!perm && (r = sys_page_map(envid, (void *)ROUNDDOWN(ph->p_va, PGSIZE),envid, (void *)ROUNDDOWN(ph->p_va,PGSIZE), PTE_U | PTE_P)))
  802249:	8b 46 08             	mov    0x8(%esi),%eax
  80224c:	25 00 f0 ff ff       	and    $0xfffff000,%eax
  802251:	c7 44 24 10 05 00 00 	movl   $0x5,0x10(%esp)
  802258:	00 
  802259:	89 44 24 0c          	mov    %eax,0xc(%esp)
  80225d:	89 7c 24 08          	mov    %edi,0x8(%esp)
  802261:	89 44 24 04          	mov    %eax,0x4(%esp)
  802265:	89 3c 24             	mov    %edi,(%esp)
  802268:	e8 22 f0 ff ff       	call   80128f <_Z12sys_page_mapiPviS_i>
  80226d:	85 c0                	test   %eax,%eax
  80226f:	74 17                	je     802288 <_Z5spawnPKcPS0_+0x4cb>
  802271:	89 c7                	mov    %eax,%edi
            {
                sys_env_destroy(envid);
  802273:	8b 95 88 fd ff ff    	mov    -0x278(%ebp),%edx
  802279:	89 14 24             	mov    %edx,(%esp)
  80227c:	e8 ea ee ff ff       	call   80116b <_Z15sys_env_destroyi>
                return r;
            }

            // if the region is not flagged writeable, remove write permissions
            int perm = (ph->p_flags & ELF_PROG_FLAG_WRITE)?PTE_W:0;
            if(!perm && (r = sys_page_map(envid, (void *)ROUNDDOWN(ph->p_va, PGSIZE),envid, (void *)ROUNDDOWN(ph->p_va,PGSIZE), PTE_U | PTE_P)))
  802281:	89 fb                	mov    %edi,%ebx
            {
                sys_env_destroy(envid);
                return r;
  802283:	e9 df 00 00 00       	jmp    802367 <_Z5spawnPKcPS0_+0x5aa>
    init_stack(envid, argv, &tf.tf_esp);
    tf.tf_eip = elf->e_entry;
    if ((r = sys_env_set_trapframe(envid, &tf)))
        return r;
    // iterate over each program header in the elf file
    for(; ph < eph; ++ph)
  802288:	83 c6 20             	add    $0x20,%esi
  80228b:	39 b5 94 fd ff ff    	cmp    %esi,-0x26c(%ebp)
  802291:	0f 87 fb fe ff ff    	ja     802192 <_Z5spawnPKcPS0_+0x3d5>
  802297:	8b 9d 84 fd ff ff    	mov    -0x27c(%ebp),%ebx
  80229d:	8b b5 80 fd ff ff    	mov    -0x280(%ebp),%esi
            }
                 
        }
    }

    if(fs_load)
  8022a3:	85 f6                	test   %esi,%esi
  8022a5:	74 08                	je     8022af <_Z5spawnPKcPS0_+0x4f2>
        close(progid);
  8022a7:	89 1c 24             	mov    %ebx,(%esp)
  8022aa:	e8 76 03 00 00       	call   802625 <_Z5closei>
    {
        // store the start of the word in the next argv
        argv_store[i] = utemp_addr_to_stack_addr(string_store);

        // store each character in the string_store
		for(int j = 0; argv[i][j] != 0; j++)
  8022af:	bb 00 00 00 00       	mov    $0x0,%ebx
  8022b4:	8b b5 78 fd ff ff    	mov    -0x288(%ebp),%esi
copy_shared_pages(envid_t child)
{
	uintptr_t va;
	int r;
	for (va = 0; va < UTOP; va += PGSIZE)
		if (!(vpd[PDX(va)] & PTE_P))
  8022ba:	89 d8                	mov    %ebx,%eax
  8022bc:	c1 e8 16             	shr    $0x16,%eax
  8022bf:	8b 04 85 00 e0 bb ef 	mov    -0x10442000(,%eax,4),%eax
  8022c6:	a8 01                	test   $0x1,%al
  8022c8:	75 0e                	jne    8022d8 <_Z5spawnPKcPS0_+0x51b>
			va = ROUNDUP(va + 1, PTSIZE) - PGSIZE;
  8022ca:	81 e3 00 00 c0 ff    	and    $0xffc00000,%ebx
  8022d0:	8d 9b 00 f0 3f 00    	lea    0x3ff000(%ebx),%ebx
  8022d6:	eb 46                	jmp    80231e <_Z5spawnPKcPS0_+0x561>
		else if ((vpt[PGNUM(va)] & (PTE_P|PTE_SHARE)) == (PTE_P|PTE_SHARE)) {
  8022d8:	89 d8                	mov    %ebx,%eax
  8022da:	c1 e8 0c             	shr    $0xc,%eax
  8022dd:	8b 14 85 00 00 80 ef 	mov    -0x10800000(,%eax,4),%edx
  8022e4:	81 e2 01 04 00 00    	and    $0x401,%edx
  8022ea:	81 fa 01 04 00 00    	cmp    $0x401,%edx
  8022f0:	75 2c                	jne    80231e <_Z5spawnPKcPS0_+0x561>
			r = sys_page_map(0, (void *) va, child, (void *) va,
					 vpt[PGNUM(va)] & PTE_SYSCALL);
  8022f2:	8b 04 85 00 00 80 ef 	mov    -0x10800000(,%eax,4),%eax
  8022f9:	25 07 0e 00 00       	and    $0xe07,%eax
  8022fe:	89 44 24 10          	mov    %eax,0x10(%esp)
  802302:	89 5c 24 0c          	mov    %ebx,0xc(%esp)
  802306:	89 74 24 08          	mov    %esi,0x8(%esp)
  80230a:	89 5c 24 04          	mov    %ebx,0x4(%esp)
  80230e:	c7 04 24 00 00 00 00 	movl   $0x0,(%esp)
  802315:	e8 75 ef ff ff       	call   80128f <_Z12sys_page_mapiPviS_i>
			if (r < 0)
  80231a:	85 c0                	test   %eax,%eax
  80231c:	78 0e                	js     80232c <_Z5spawnPKcPS0_+0x56f>
static int
copy_shared_pages(envid_t child)
{
	uintptr_t va;
	int r;
	for (va = 0; va < UTOP; va += PGSIZE)
  80231e:	81 c3 00 10 00 00    	add    $0x1000,%ebx
  802324:	81 fb ff ff ff ee    	cmp    $0xeeffffff,%ebx
  80232a:	76 8e                	jbe    8022ba <_Z5spawnPKcPS0_+0x4fd>
    if(fs_load)
        close(progid);
    copy_shared_pages(envid);
    
    // set our spawned process to runnable
    if ((r = sys_env_set_status(envid, ENV_RUNNABLE)) < 0)
  80232c:	c7 44 24 04 01 00 00 	movl   $0x1,0x4(%esp)
  802333:	00 
  802334:	8b 85 88 fd ff ff    	mov    -0x278(%ebp),%eax
  80233a:	89 04 24             	mov    %eax,(%esp)
  80233d:	e8 09 f0 ff ff       	call   80134b <_Z18sys_env_set_statusii>
        return r;
  802342:	85 c0                	test   %eax,%eax
  802344:	8b 9d 88 fd ff ff    	mov    -0x278(%ebp),%ebx
  80234a:	0f 48 d8             	cmovs  %eax,%ebx
  80234d:	eb 18                	jmp    802367 <_Z5spawnPKcPS0_+0x5aa>
    if(fs_load)
    {
        if ((progid = open(prog, O_RDONLY)) < 0)
            return progid;
        if (readn(progid, elf,sizeof(elf_buf)) != sizeof elf_buf)
            return -E_NOT_EXEC;
  80234f:	bb f7 ff ff ff       	mov    $0xfffffff7,%ebx
  802354:	eb 11                	jmp    802367 <_Z5spawnPKcPS0_+0x5aa>
    {
        // Read ELF header from the kernel's binary collection.
        if ((progid = sys_program_lookup(prog, strlen(prog))) < 0)
            return progid;
        if (sys_program_read(0, elf, progid, 0, sizeof(elf_buf)) != sizeof(elf_buf, 0))
            return -E_NOT_EXEC;
  802356:	bb f7 ff ff ff       	mov    $0xfffffff7,%ebx
  80235b:	eb 0a                	jmp    802367 <_Z5spawnPKcPS0_+0x5aa>
    ph = (struct Proghdr *) ((uint8_t *) elf + elf->e_phoff);
    struct Proghdr *eph = ph + elf->e_phnum;
    
    envid_t envid;
    if ((envid = sys_exofork()) < 0)
        return envid;
  80235d:	8b 9d 88 fd ff ff    	mov    -0x278(%ebp),%ebx
  802363:	eb 02                	jmp    802367 <_Z5spawnPKcPS0_+0x5aa>
    struct Trapframe tf;
    memcpy(&tf, (void *)&envs[ENVX(envid)].env_tf, sizeof(struct Trapframe));
    init_stack(envid, argv, &tf.tf_esp);
    tf.tf_eip = elf->e_entry;
    if ((r = sys_env_set_trapframe(envid, &tf)))
        return r;
  802365:	89 c3                	mov    %eax,%ebx
    
    // set our spawned process to runnable
    if ((r = sys_env_set_status(envid, ENV_RUNNABLE)) < 0)
        return r;
    return envid;
}
  802367:	89 d8                	mov    %ebx,%eax
  802369:	8b 5d f4             	mov    -0xc(%ebp),%ebx
  80236c:	8b 75 f8             	mov    -0x8(%ebp),%esi
  80236f:	8b 7d fc             	mov    -0x4(%ebp),%edi
  802372:	89 ec                	mov    %ebp,%esp
  802374:	5d                   	pop    %ebp
  802375:	c3                   	ret    
                return r;
            }

            // if the region is not flagged writeable, remove write permissions
            int perm = (ph->p_flags & ELF_PROG_FLAG_WRITE)?PTE_W:0;
            if(!perm && (r = sys_page_map(envid, (void *)ROUNDDOWN(ph->p_va, PGSIZE),envid, (void *)ROUNDDOWN(ph->p_va,PGSIZE), PTE_U | PTE_P)))
  802376:	f6 46 18 02          	testb  $0x2,0x18(%esi)
  80237a:	0f 85 08 ff ff ff    	jne    802288 <_Z5spawnPKcPS0_+0x4cb>
  802380:	e9 c4 fe ff ff       	jmp    802249 <_Z5spawnPKcPS0_+0x48c>

00802385 <_Z6spawnlPKcS0_z>:
}

// Spawn, taking command-line arguments array directly on the stack.
envid_t
spawnl(const char *prog, const char *arg0, ...)
{
  802385:	55                   	push   %ebp
  802386:	89 e5                	mov    %esp,%ebp
  802388:	83 ec 18             	sub    $0x18,%esp
	return spawn(prog, &arg0);
  80238b:	8d 45 0c             	lea    0xc(%ebp),%eax
  80238e:	89 44 24 04          	mov    %eax,0x4(%esp)
  802392:	8b 45 08             	mov    0x8(%ebp),%eax
  802395:	89 04 24             	mov    %eax,(%esp)
  802398:	e8 20 fa ff ff       	call   801dbd <_Z5spawnPKcPS0_>
}
  80239d:	c9                   	leave  
  80239e:	c3                   	ret    
	...

008023a0 <_ZL8fd_validPK2Fd>:

// Return true iff 'fd' is a valid file descriptor pointer.
//
static bool
fd_valid(const struct Fd *fd)
{
  8023a0:	55                   	push   %ebp
  8023a1:	89 e5                	mov    %esp,%ebp
	return PGOFF(fd) == 0 && fd >= (const struct Fd *) FDTABLE
		&& fd < (const struct Fd *) (FDTABLE + NFD * PGSIZE);
  8023a3:	a9 ff 0f 00 00       	test   $0xfff,%eax
  8023a8:	75 11                	jne    8023bb <_ZL8fd_validPK2Fd+0x1b>
  8023aa:	3d ff ff ff cf       	cmp    $0xcfffffff,%eax
  8023af:	76 0a                	jbe    8023bb <_ZL8fd_validPK2Fd+0x1b>
}

// Return true iff 'fd' is a valid file descriptor pointer.
//
static bool
fd_valid(const struct Fd *fd)
  8023b1:	3d ff ff 01 d0       	cmp    $0xd001ffff,%eax
  8023b6:	0f 96 c0             	setbe  %al
  8023b9:	eb 05                	jmp    8023c0 <_ZL8fd_validPK2Fd+0x20>
{
	return PGOFF(fd) == 0 && fd >= (const struct Fd *) FDTABLE
		&& fd < (const struct Fd *) (FDTABLE + NFD * PGSIZE);
  8023bb:	b8 00 00 00 00       	mov    $0x0,%eax
}
  8023c0:	5d                   	pop    %ebp
  8023c1:	c3                   	ret    

008023c2 <_ZL9fd_isopenPK2Fd>:

// Return true iff 'fd' is currently open.
//
static bool
fd_isopen(const struct Fd *fd)
{
  8023c2:	55                   	push   %ebp
  8023c3:	89 e5                	mov    %esp,%ebp
  8023c5:	53                   	push   %ebx
  8023c6:	83 ec 14             	sub    $0x14,%esp
  8023c9:	89 c3                	mov    %eax,%ebx
	assert(fd_valid(fd));
  8023cb:	e8 d0 ff ff ff       	call   8023a0 <_ZL8fd_validPK2Fd>
  8023d0:	84 c0                	test   %al,%al
  8023d2:	75 24                	jne    8023f8 <_ZL9fd_isopenPK2Fd+0x36>
  8023d4:	c7 44 24 0c b1 55 80 	movl   $0x8055b1,0xc(%esp)
  8023db:	00 
  8023dc:	c7 44 24 08 76 55 80 	movl   $0x805576,0x8(%esp)
  8023e3:	00 
  8023e4:	c7 44 24 04 34 00 00 	movl   $0x34,0x4(%esp)
  8023eb:	00 
  8023ec:	c7 04 24 be 55 80 00 	movl   $0x8055be,(%esp)
  8023f3:	e8 18 e2 ff ff       	call   800610 <_Z6_panicPKciS0_z>
	return (vpd[PDX(fd)] & PTE_P) && (vpt[PGNUM(fd)] & PTE_P);
  8023f8:	89 d8                	mov    %ebx,%eax
  8023fa:	c1 e8 16             	shr    $0x16,%eax
  8023fd:	8b 14 85 00 e0 bb ef 	mov    -0x10442000(,%eax,4),%edx
  802404:	b8 00 00 00 00       	mov    $0x0,%eax
  802409:	f6 c2 01             	test   $0x1,%dl
  80240c:	74 0d                	je     80241b <_ZL9fd_isopenPK2Fd+0x59>
  80240e:	c1 eb 0c             	shr    $0xc,%ebx
  802411:	8b 04 9d 00 00 80 ef 	mov    -0x10800000(,%ebx,4),%eax
}

// Return true iff 'fd' is currently open.
//
static bool
fd_isopen(const struct Fd *fd)
  802418:	83 e0 01             	and    $0x1,%eax
{
	assert(fd_valid(fd));
	return (vpd[PDX(fd)] & PTE_P) && (vpt[PGNUM(fd)] & PTE_P);
}
  80241b:	83 c4 14             	add    $0x14,%esp
  80241e:	5b                   	pop    %ebx
  80241f:	5d                   	pop    %ebp
  802420:	c3                   	ret    

00802421 <_Z9fd_lookupiPP2Fdb>:
// or NULL is returned.
// Returns 0 on success, < 0 error code on failure.
//
int
fd_lookup(int fdnum, struct Fd **fd_store, bool must_exist)
{
  802421:	55                   	push   %ebp
  802422:	89 e5                	mov    %esp,%ebp
  802424:	83 ec 08             	sub    $0x8,%esp
  802427:	89 1c 24             	mov    %ebx,(%esp)
  80242a:	89 74 24 04          	mov    %esi,0x4(%esp)
  80242e:	8b 5d 08             	mov    0x8(%ebp),%ebx
  802431:	8b 75 0c             	mov    0xc(%ebp),%esi
  802434:	0f b6 45 10          	movzbl 0x10(%ebp),%eax
	struct Fd *fd = (struct Fd *) (FDTABLE + fdnum * PGSIZE);

	if (fdnum < 0 || fdnum >= NFD || (must_exist && !fd_isopen(fd))) {
  802438:	83 fb 1f             	cmp    $0x1f,%ebx
  80243b:	77 18                	ja     802455 <_Z9fd_lookupiPP2Fdb+0x34>
// Returns 0 on success, < 0 error code on failure.
//
int
fd_lookup(int fdnum, struct Fd **fd_store, bool must_exist)
{
	struct Fd *fd = (struct Fd *) (FDTABLE + fdnum * PGSIZE);
  80243d:	81 c3 00 00 0d 00    	add    $0xd0000,%ebx
  802443:	c1 e3 0c             	shl    $0xc,%ebx

	if (fdnum < 0 || fdnum >= NFD || (must_exist && !fd_isopen(fd))) {
  802446:	84 c0                	test   %al,%al
  802448:	74 21                	je     80246b <_Z9fd_lookupiPP2Fdb+0x4a>
  80244a:	89 d8                	mov    %ebx,%eax
  80244c:	e8 71 ff ff ff       	call   8023c2 <_ZL9fd_isopenPK2Fd>
  802451:	84 c0                	test   %al,%al
  802453:	75 16                	jne    80246b <_Z9fd_lookupiPP2Fdb+0x4a>
		*fd_store = 0;
  802455:	c7 06 00 00 00 00    	movl   $0x0,(%esi)
		return -E_INVAL;
  80245b:	b8 fd ff ff ff       	mov    $0xfffffffd,%eax
	} else {
		*fd_store = fd;
		return 0;
	}
}
  802460:	8b 1c 24             	mov    (%esp),%ebx
  802463:	8b 74 24 04          	mov    0x4(%esp),%esi
  802467:	89 ec                	mov    %ebp,%esp
  802469:	5d                   	pop    %ebp
  80246a:	c3                   	ret    

	if (fdnum < 0 || fdnum >= NFD || (must_exist && !fd_isopen(fd))) {
		*fd_store = 0;
		return -E_INVAL;
	} else {
		*fd_store = fd;
  80246b:	89 1e                	mov    %ebx,(%esi)
		return 0;
  80246d:	b8 00 00 00 00       	mov    $0x0,%eax
  802472:	eb ec                	jmp    802460 <_Z9fd_lookupiPP2Fdb+0x3f>

00802474 <_Z6fd2numP2Fd>:

// Return the file descriptor number for a 'struct Fd'.
//
int
fd2num(struct Fd *fd)
{
  802474:	55                   	push   %ebp
  802475:	89 e5                	mov    %esp,%ebp
  802477:	53                   	push   %ebx
  802478:	83 ec 14             	sub    $0x14,%esp
  80247b:	8b 5d 08             	mov    0x8(%ebp),%ebx
	assert(fd_valid(fd));
  80247e:	89 d8                	mov    %ebx,%eax
  802480:	e8 1b ff ff ff       	call   8023a0 <_ZL8fd_validPK2Fd>
  802485:	84 c0                	test   %al,%al
  802487:	75 24                	jne    8024ad <_Z6fd2numP2Fd+0x39>
  802489:	c7 44 24 0c b1 55 80 	movl   $0x8055b1,0xc(%esp)
  802490:	00 
  802491:	c7 44 24 08 76 55 80 	movl   $0x805576,0x8(%esp)
  802498:	00 
  802499:	c7 44 24 04 3d 00 00 	movl   $0x3d,0x4(%esp)
  8024a0:	00 
  8024a1:	c7 04 24 be 55 80 00 	movl   $0x8055be,(%esp)
  8024a8:	e8 63 e1 ff ff       	call   800610 <_Z6_panicPKciS0_z>
	return ((uintptr_t) fd - FDTABLE) / PGSIZE;
  8024ad:	8d 83 00 00 00 30    	lea    0x30000000(%ebx),%eax
  8024b3:	c1 e8 0c             	shr    $0xc,%eax
}
  8024b6:	83 c4 14             	add    $0x14,%esp
  8024b9:	5b                   	pop    %ebx
  8024ba:	5d                   	pop    %ebp
  8024bb:	c3                   	ret    

008024bc <_Z7fd2dataP2Fd>:

// Return the file descriptor data pointer for a 'struct Fd'.
//
char *
fd2data(struct Fd *fd)
{
  8024bc:	55                   	push   %ebp
  8024bd:	89 e5                	mov    %esp,%ebp
  8024bf:	83 ec 18             	sub    $0x18,%esp
	int num = fd2num(fd);
  8024c2:	8b 45 08             	mov    0x8(%ebp),%eax
  8024c5:	89 04 24             	mov    %eax,(%esp)
  8024c8:	e8 a7 ff ff ff       	call   802474 <_Z6fd2numP2Fd>
	return (char *) (FDDATA + num * PGSIZE);
  8024cd:	05 20 00 0d 00       	add    $0xd0020,%eax
  8024d2:	c1 e0 0c             	shl    $0xc,%eax
}
  8024d5:	c9                   	leave  
  8024d6:	c3                   	ret    

008024d7 <_Z14fd_find_unusedPP2Fd>:
// Returns 0 on success, < 0 on error.  Errors are:
//	-E_MAX_FD: no more file descriptors
// On error, *fd_store is set to 0.
int
fd_find_unused(struct Fd **fd_store)
{
  8024d7:	55                   	push   %ebp
  8024d8:	89 e5                	mov    %esp,%ebp
  8024da:	57                   	push   %edi
  8024db:	56                   	push   %esi
  8024dc:	53                   	push   %ebx
  8024dd:	83 ec 2c             	sub    $0x2c,%esp
  8024e0:	8b 7d 08             	mov    0x8(%ebp),%edi
	int i;
	struct Fd *fd;

	for (i = 0; i < NFD; i++) {
  8024e3:	bb 00 00 00 00       	mov    $0x0,%ebx
		(void) fd_lookup(i, &fd, false);
  8024e8:	8d 75 e4             	lea    -0x1c(%ebp),%esi
  8024eb:	c7 44 24 08 00 00 00 	movl   $0x0,0x8(%esp)
  8024f2:	00 
  8024f3:	89 74 24 04          	mov    %esi,0x4(%esp)
  8024f7:	89 1c 24             	mov    %ebx,(%esp)
  8024fa:	e8 22 ff ff ff       	call   802421 <_Z9fd_lookupiPP2Fdb>
		if (!fd_isopen(fd)) {
  8024ff:	8b 45 e4             	mov    -0x1c(%ebp),%eax
  802502:	e8 bb fe ff ff       	call   8023c2 <_ZL9fd_isopenPK2Fd>
  802507:	84 c0                	test   %al,%al
  802509:	75 0c                	jne    802517 <_Z14fd_find_unusedPP2Fd+0x40>
			*fd_store = fd;
  80250b:	8b 45 e4             	mov    -0x1c(%ebp),%eax
  80250e:	89 07                	mov    %eax,(%edi)
			return 0;
  802510:	b8 00 00 00 00       	mov    $0x0,%eax
  802515:	eb 13                	jmp    80252a <_Z14fd_find_unusedPP2Fd+0x53>
fd_find_unused(struct Fd **fd_store)
{
	int i;
	struct Fd *fd;

	for (i = 0; i < NFD; i++) {
  802517:	83 c3 01             	add    $0x1,%ebx
  80251a:	83 fb 20             	cmp    $0x20,%ebx
  80251d:	75 cc                	jne    8024eb <_Z14fd_find_unusedPP2Fd+0x14>
		if (!fd_isopen(fd)) {
			*fd_store = fd;
			return 0;
		}
	}
	*fd_store = 0;
  80251f:	c7 07 00 00 00 00    	movl   $0x0,(%edi)
	return -E_MAX_OPEN;
  802525:	b8 f5 ff ff ff       	mov    $0xfffffff5,%eax
}
  80252a:	83 c4 2c             	add    $0x2c,%esp
  80252d:	5b                   	pop    %ebx
  80252e:	5e                   	pop    %esi
  80252f:	5f                   	pop    %edi
  802530:	5d                   	pop    %ebp
  802531:	c3                   	ret    

00802532 <_Z10dev_lookupiPP3Dev>:
	0
};

int
dev_lookup(int dev_id, struct Dev **dev)
{
  802532:	55                   	push   %ebp
  802533:	89 e5                	mov    %esp,%ebp
  802535:	53                   	push   %ebx
  802536:	83 ec 14             	sub    $0x14,%esp
  802539:	8b 4d 08             	mov    0x8(%ebp),%ecx
  80253c:	8b 5d 0c             	mov    0xc(%ebp),%ebx
	int i;
	for (i = 0; devtab[i]; i++)
  80253f:	b8 00 00 00 00       	mov    $0x0,%eax
		if (devtab[i]->dev_id == dev_id) {
  802544:	39 0d 20 60 80 00    	cmp    %ecx,0x806020
  80254a:	75 16                	jne    802562 <_Z10dev_lookupiPP3Dev+0x30>
  80254c:	eb 06                	jmp    802554 <_Z10dev_lookupiPP3Dev+0x22>
  80254e:	39 0a                	cmp    %ecx,(%edx)
  802550:	75 10                	jne    802562 <_Z10dev_lookupiPP3Dev+0x30>
  802552:	eb 05                	jmp    802559 <_Z10dev_lookupiPP3Dev+0x27>

int
dev_lookup(int dev_id, struct Dev **dev)
{
	int i;
	for (i = 0; devtab[i]; i++)
  802554:	ba 20 60 80 00       	mov    $0x806020,%edx
		if (devtab[i]->dev_id == dev_id) {
			*dev = devtab[i];
  802559:	89 13                	mov    %edx,(%ebx)
			return 0;
  80255b:	b8 00 00 00 00       	mov    $0x0,%eax
  802560:	eb 35                	jmp    802597 <_Z10dev_lookupiPP3Dev+0x65>

int
dev_lookup(int dev_id, struct Dev **dev)
{
	int i;
	for (i = 0; devtab[i]; i++)
  802562:	83 c0 01             	add    $0x1,%eax
  802565:	8b 14 85 28 56 80 00 	mov    0x805628(,%eax,4),%edx
  80256c:	85 d2                	test   %edx,%edx
  80256e:	75 de                	jne    80254e <_Z10dev_lookupiPP3Dev+0x1c>
		if (devtab[i]->dev_id == dev_id) {
			*dev = devtab[i];
			return 0;
		}
	cprintf("[%08x] unknown device type %d\n", thisenv->env_id, dev_id);
  802570:	a1 00 70 80 00       	mov    0x807000,%eax
  802575:	8b 40 04             	mov    0x4(%eax),%eax
  802578:	89 4c 24 08          	mov    %ecx,0x8(%esp)
  80257c:	89 44 24 04          	mov    %eax,0x4(%esp)
  802580:	c7 04 24 e4 55 80 00 	movl   $0x8055e4,(%esp)
  802587:	e8 a2 e1 ff ff       	call   80072e <_Z7cprintfPKcz>
	*dev = 0;
  80258c:	c7 03 00 00 00 00    	movl   $0x0,(%ebx)
	return -E_INVAL;
  802592:	b8 fd ff ff ff       	mov    $0xfffffffd,%eax
}
  802597:	83 c4 14             	add    $0x14,%esp
  80259a:	5b                   	pop    %ebx
  80259b:	5d                   	pop    %ebp
  80259c:	c3                   	ret    

0080259d <_Z8fd_closeP2Fdb>:
// If 'must_exist' is 1, then fd_close returns -E_INVAL when passed a
// closed or nonexistent file descriptor.
// Returns 0 on success, < 0 on error.
int
fd_close(struct Fd *fd, bool must_exist)
{
  80259d:	55                   	push   %ebp
  80259e:	89 e5                	mov    %esp,%ebp
  8025a0:	56                   	push   %esi
  8025a1:	53                   	push   %ebx
  8025a2:	83 ec 20             	sub    $0x20,%esp
  8025a5:	8b 75 08             	mov    0x8(%ebp),%esi
  8025a8:	0f b6 5d 0c          	movzbl 0xc(%ebp),%ebx
	struct Fd *fd2;
	struct Dev *dev;
	int r;
	if ((r = fd_lookup(fd2num(fd), &fd2, must_exist)) < 0
  8025ac:	89 34 24             	mov    %esi,(%esp)
  8025af:	e8 c0 fe ff ff       	call   802474 <_Z6fd2numP2Fd>
  8025b4:	0f b6 d3             	movzbl %bl,%edx
  8025b7:	89 54 24 08          	mov    %edx,0x8(%esp)
  8025bb:	8d 55 f4             	lea    -0xc(%ebp),%edx
  8025be:	89 54 24 04          	mov    %edx,0x4(%esp)
  8025c2:	89 04 24             	mov    %eax,(%esp)
  8025c5:	e8 57 fe ff ff       	call   802421 <_Z9fd_lookupiPP2Fdb>
  8025ca:	85 c0                	test   %eax,%eax
  8025cc:	78 05                	js     8025d3 <_Z8fd_closeP2Fdb+0x36>
  8025ce:	3b 75 f4             	cmp    -0xc(%ebp),%esi
  8025d1:	74 0c                	je     8025df <_Z8fd_closeP2Fdb+0x42>
	    || fd != fd2)
		return (must_exist ? -E_INVAL : 0);
  8025d3:	80 fb 01             	cmp    $0x1,%bl
  8025d6:	19 db                	sbb    %ebx,%ebx
  8025d8:	f7 d3                	not    %ebx
  8025da:	83 e3 fd             	and    $0xfffffffd,%ebx
  8025dd:	eb 3d                	jmp    80261c <_Z8fd_closeP2Fdb+0x7f>
	if ((r = dev_lookup(fd->fd_dev_id, &dev)) >= 0) {
  8025df:	8d 45 f0             	lea    -0x10(%ebp),%eax
  8025e2:	89 44 24 04          	mov    %eax,0x4(%esp)
  8025e6:	8b 06                	mov    (%esi),%eax
  8025e8:	89 04 24             	mov    %eax,(%esp)
  8025eb:	e8 42 ff ff ff       	call   802532 <_Z10dev_lookupiPP3Dev>
  8025f0:	89 c3                	mov    %eax,%ebx
  8025f2:	85 c0                	test   %eax,%eax
  8025f4:	78 16                	js     80260c <_Z8fd_closeP2Fdb+0x6f>
		if (dev->dev_close)
  8025f6:	8b 45 f0             	mov    -0x10(%ebp),%eax
  8025f9:	8b 40 10             	mov    0x10(%eax),%eax
			r = (*dev->dev_close)(fd);
		else
			r = 0;
  8025fc:	bb 00 00 00 00       	mov    $0x0,%ebx
	int r;
	if ((r = fd_lookup(fd2num(fd), &fd2, must_exist)) < 0
	    || fd != fd2)
		return (must_exist ? -E_INVAL : 0);
	if ((r = dev_lookup(fd->fd_dev_id, &dev)) >= 0) {
		if (dev->dev_close)
  802601:	85 c0                	test   %eax,%eax
  802603:	74 07                	je     80260c <_Z8fd_closeP2Fdb+0x6f>
			r = (*dev->dev_close)(fd);
  802605:	89 34 24             	mov    %esi,(%esp)
  802608:	ff d0                	call   *%eax
  80260a:	89 c3                	mov    %eax,%ebx
		else
			r = 0;
	}
	// Make sure fd is unmapped.  Might be a no-op if
	// (*dev->dev_close)(fd) already unmapped it.
	(void) sys_page_unmap(0, fd);
  80260c:	89 74 24 04          	mov    %esi,0x4(%esp)
  802610:	c7 04 24 00 00 00 00 	movl   $0x0,(%esp)
  802617:	e8 d1 ec ff ff       	call   8012ed <_Z14sys_page_unmapiPv>
	return r;
}
  80261c:	89 d8                	mov    %ebx,%eax
  80261e:	83 c4 20             	add    $0x20,%esp
  802621:	5b                   	pop    %ebx
  802622:	5e                   	pop    %esi
  802623:	5d                   	pop    %ebp
  802624:	c3                   	ret    

00802625 <_Z5closei>:
// File descriptor interface functions
// --------------------------------------------------------------

int
close(int fdnum)
{
  802625:	55                   	push   %ebp
  802626:	89 e5                	mov    %esp,%ebp
  802628:	83 ec 28             	sub    $0x28,%esp
	struct Fd *fd;
	int r;
	if ((r = fd_lookup(fdnum, &fd, true)) < 0)
  80262b:	c7 44 24 08 01 00 00 	movl   $0x1,0x8(%esp)
  802632:	00 
  802633:	8d 45 f4             	lea    -0xc(%ebp),%eax
  802636:	89 44 24 04          	mov    %eax,0x4(%esp)
  80263a:	8b 45 08             	mov    0x8(%ebp),%eax
  80263d:	89 04 24             	mov    %eax,(%esp)
  802640:	e8 dc fd ff ff       	call   802421 <_Z9fd_lookupiPP2Fdb>
  802645:	85 c0                	test   %eax,%eax
  802647:	78 13                	js     80265c <_Z5closei+0x37>
		return r;
	else
		return fd_close(fd, true);
  802649:	c7 44 24 04 01 00 00 	movl   $0x1,0x4(%esp)
  802650:	00 
  802651:	8b 45 f4             	mov    -0xc(%ebp),%eax
  802654:	89 04 24             	mov    %eax,(%esp)
  802657:	e8 41 ff ff ff       	call   80259d <_Z8fd_closeP2Fdb>
}
  80265c:	c9                   	leave  
  80265d:	c3                   	ret    

0080265e <_Z9close_allv>:

void
close_all(void)
{
  80265e:	55                   	push   %ebp
  80265f:	89 e5                	mov    %esp,%ebp
  802661:	53                   	push   %ebx
  802662:	83 ec 14             	sub    $0x14,%esp
	int i;
	for (i = 0; i < NFD; i++)
  802665:	bb 00 00 00 00       	mov    $0x0,%ebx
		close(i);
  80266a:	89 1c 24             	mov    %ebx,(%esp)
  80266d:	e8 b3 ff ff ff       	call   802625 <_Z5closei>

void
close_all(void)
{
	int i;
	for (i = 0; i < NFD; i++)
  802672:	83 c3 01             	add    $0x1,%ebx
  802675:	83 fb 20             	cmp    $0x20,%ebx
  802678:	75 f0                	jne    80266a <_Z9close_allv+0xc>
		close(i);
}
  80267a:	83 c4 14             	add    $0x14,%esp
  80267d:	5b                   	pop    %ebx
  80267e:	5d                   	pop    %ebp
  80267f:	c3                   	ret    

00802680 <_Z3dupii>:
// file and the file offset of the other.
// Closes any previously open file descriptor at 'newfdnum'.
// This is implemented using virtual memory tricks (of course!).
int
dup(int oldfdnum, int newfdnum)
{
  802680:	55                   	push   %ebp
  802681:	89 e5                	mov    %esp,%ebp
  802683:	83 ec 48             	sub    $0x48,%esp
  802686:	89 5d f4             	mov    %ebx,-0xc(%ebp)
  802689:	89 75 f8             	mov    %esi,-0x8(%ebp)
  80268c:	89 7d fc             	mov    %edi,-0x4(%ebp)
  80268f:	8b 75 0c             	mov    0xc(%ebp),%esi
	int r;
	char *ova, *nva;
	pte_t pte;
	struct Fd *oldfd, *newfd;

	if ((r = fd_lookup(oldfdnum, &oldfd, true)) < 0
  802692:	c7 44 24 08 01 00 00 	movl   $0x1,0x8(%esp)
  802699:	00 
  80269a:	8d 45 e4             	lea    -0x1c(%ebp),%eax
  80269d:	89 44 24 04          	mov    %eax,0x4(%esp)
  8026a1:	8b 45 08             	mov    0x8(%ebp),%eax
  8026a4:	89 04 24             	mov    %eax,(%esp)
  8026a7:	e8 75 fd ff ff       	call   802421 <_Z9fd_lookupiPP2Fdb>
  8026ac:	89 c3                	mov    %eax,%ebx
  8026ae:	85 c0                	test   %eax,%eax
  8026b0:	0f 88 ce 00 00 00    	js     802784 <_Z3dupii+0x104>
  8026b6:	c7 44 24 08 00 00 00 	movl   $0x0,0x8(%esp)
  8026bd:	00 
	    || (r = fd_lookup(newfdnum, &newfd, false)) < 0)
  8026be:	8d 45 e0             	lea    -0x20(%ebp),%eax
  8026c1:	89 44 24 04          	mov    %eax,0x4(%esp)
	int r;
	char *ova, *nva;
	pte_t pte;
	struct Fd *oldfd, *newfd;

	if ((r = fd_lookup(oldfdnum, &oldfd, true)) < 0
  8026c5:	89 34 24             	mov    %esi,(%esp)
  8026c8:	e8 54 fd ff ff       	call   802421 <_Z9fd_lookupiPP2Fdb>
  8026cd:	89 c3                	mov    %eax,%ebx
  8026cf:	85 c0                	test   %eax,%eax
  8026d1:	0f 89 bc 00 00 00    	jns    802793 <_Z3dupii+0x113>
  8026d7:	e9 a8 00 00 00       	jmp    802784 <_Z3dupii+0x104>
	close(newfdnum);

	ova = fd2data(oldfd);
	nva = fd2data(newfd);

	if ((vpd[PDX(ova)] & PTE_P) && (vpt[PGNUM(ova)] & PTE_P))
  8026dc:	89 d8                	mov    %ebx,%eax
  8026de:	c1 e8 0c             	shr    $0xc,%eax
  8026e1:	8b 14 85 00 00 80 ef 	mov    -0x10800000(,%eax,4),%edx
  8026e8:	f6 c2 01             	test   $0x1,%dl
  8026eb:	74 32                	je     80271f <_Z3dupii+0x9f>
		if ((r = sys_page_map(0, ova, 0, nva, vpt[PGNUM(ova)] & PTE_SYSCALL)) < 0)
  8026ed:	8b 04 85 00 00 80 ef 	mov    -0x10800000(,%eax,4),%eax
  8026f4:	25 07 0e 00 00       	and    $0xe07,%eax
  8026f9:	89 44 24 10          	mov    %eax,0x10(%esp)
  8026fd:	89 7c 24 0c          	mov    %edi,0xc(%esp)
  802701:	c7 44 24 08 00 00 00 	movl   $0x0,0x8(%esp)
  802708:	00 
  802709:	89 5c 24 04          	mov    %ebx,0x4(%esp)
  80270d:	c7 04 24 00 00 00 00 	movl   $0x0,(%esp)
  802714:	e8 76 eb ff ff       	call   80128f <_Z12sys_page_mapiPviS_i>
  802719:	89 c3                	mov    %eax,%ebx
  80271b:	85 c0                	test   %eax,%eax
  80271d:	78 3e                	js     80275d <_Z3dupii+0xdd>
			goto err;
	if ((r = sys_page_map(0, oldfd, 0, newfd, vpt[PGNUM(oldfd)] & PTE_SYSCALL)) < 0)
  80271f:	8b 45 e4             	mov    -0x1c(%ebp),%eax
  802722:	89 c2                	mov    %eax,%edx
  802724:	c1 ea 0c             	shr    $0xc,%edx
  802727:	8b 14 95 00 00 80 ef 	mov    -0x10800000(,%edx,4),%edx
  80272e:	81 e2 07 0e 00 00    	and    $0xe07,%edx
  802734:	89 54 24 10          	mov    %edx,0x10(%esp)
  802738:	8b 55 e0             	mov    -0x20(%ebp),%edx
  80273b:	89 54 24 0c          	mov    %edx,0xc(%esp)
  80273f:	c7 44 24 08 00 00 00 	movl   $0x0,0x8(%esp)
  802746:	00 
  802747:	89 44 24 04          	mov    %eax,0x4(%esp)
  80274b:	c7 04 24 00 00 00 00 	movl   $0x0,(%esp)
  802752:	e8 38 eb ff ff       	call   80128f <_Z12sys_page_mapiPviS_i>
  802757:	89 c3                	mov    %eax,%ebx
  802759:	85 c0                	test   %eax,%eax
  80275b:	79 25                	jns    802782 <_Z3dupii+0x102>
		goto err;

	return newfdnum;

err:
	sys_page_unmap(0, newfd);
  80275d:	8b 45 e0             	mov    -0x20(%ebp),%eax
  802760:	89 44 24 04          	mov    %eax,0x4(%esp)
  802764:	c7 04 24 00 00 00 00 	movl   $0x0,(%esp)
  80276b:	e8 7d eb ff ff       	call   8012ed <_Z14sys_page_unmapiPv>
	sys_page_unmap(0, nva);
  802770:	89 7c 24 04          	mov    %edi,0x4(%esp)
  802774:	c7 04 24 00 00 00 00 	movl   $0x0,(%esp)
  80277b:	e8 6d eb ff ff       	call   8012ed <_Z14sys_page_unmapiPv>
	return r;
  802780:	eb 02                	jmp    802784 <_Z3dupii+0x104>
		if ((r = sys_page_map(0, ova, 0, nva, vpt[PGNUM(ova)] & PTE_SYSCALL)) < 0)
			goto err;
	if ((r = sys_page_map(0, oldfd, 0, newfd, vpt[PGNUM(oldfd)] & PTE_SYSCALL)) < 0)
		goto err;

	return newfdnum;
  802782:	89 f3                	mov    %esi,%ebx

err:
	sys_page_unmap(0, newfd);
	sys_page_unmap(0, nva);
	return r;
}
  802784:	89 d8                	mov    %ebx,%eax
  802786:	8b 5d f4             	mov    -0xc(%ebp),%ebx
  802789:	8b 75 f8             	mov    -0x8(%ebp),%esi
  80278c:	8b 7d fc             	mov    -0x4(%ebp),%edi
  80278f:	89 ec                	mov    %ebp,%esp
  802791:	5d                   	pop    %ebp
  802792:	c3                   	ret    
	struct Fd *oldfd, *newfd;

	if ((r = fd_lookup(oldfdnum, &oldfd, true)) < 0
	    || (r = fd_lookup(newfdnum, &newfd, false)) < 0)
		return r;
	close(newfdnum);
  802793:	89 34 24             	mov    %esi,(%esp)
  802796:	e8 8a fe ff ff       	call   802625 <_Z5closei>

	ova = fd2data(oldfd);
  80279b:	8b 45 e4             	mov    -0x1c(%ebp),%eax
  80279e:	89 04 24             	mov    %eax,(%esp)
  8027a1:	e8 16 fd ff ff       	call   8024bc <_Z7fd2dataP2Fd>
  8027a6:	89 c3                	mov    %eax,%ebx
	nva = fd2data(newfd);
  8027a8:	8b 45 e0             	mov    -0x20(%ebp),%eax
  8027ab:	89 04 24             	mov    %eax,(%esp)
  8027ae:	e8 09 fd ff ff       	call   8024bc <_Z7fd2dataP2Fd>
  8027b3:	89 c7                	mov    %eax,%edi

	if ((vpd[PDX(ova)] & PTE_P) && (vpt[PGNUM(ova)] & PTE_P))
  8027b5:	89 d8                	mov    %ebx,%eax
  8027b7:	c1 e8 16             	shr    $0x16,%eax
  8027ba:	8b 04 85 00 e0 bb ef 	mov    -0x10442000(,%eax,4),%eax
  8027c1:	a8 01                	test   $0x1,%al
  8027c3:	0f 85 13 ff ff ff    	jne    8026dc <_Z3dupii+0x5c>
  8027c9:	e9 51 ff ff ff       	jmp    80271f <_Z3dupii+0x9f>

008027ce <_Z4readiPvj>:
	return r;
}

ssize_t
read(int fdnum, void *buf, size_t n)
{
  8027ce:	55                   	push   %ebp
  8027cf:	89 e5                	mov    %esp,%ebp
  8027d1:	53                   	push   %ebx
  8027d2:	83 ec 24             	sub    $0x24,%esp
  8027d5:	8b 5d 08             	mov    0x8(%ebp),%ebx
	int r;
	struct Dev *dev;
	struct Fd *fd;

	if ((r = fd_lookup(fdnum, &fd, true)) < 0
  8027d8:	c7 44 24 08 01 00 00 	movl   $0x1,0x8(%esp)
  8027df:	00 
  8027e0:	8d 45 f0             	lea    -0x10(%ebp),%eax
  8027e3:	89 44 24 04          	mov    %eax,0x4(%esp)
  8027e7:	89 1c 24             	mov    %ebx,(%esp)
  8027ea:	e8 32 fc ff ff       	call   802421 <_Z9fd_lookupiPP2Fdb>
  8027ef:	85 c0                	test   %eax,%eax
  8027f1:	78 5f                	js     802852 <_Z4readiPvj+0x84>
	    || (r = dev_lookup(fd->fd_dev_id, &dev)) < 0)
  8027f3:	8d 45 f4             	lea    -0xc(%ebp),%eax
  8027f6:	89 44 24 04          	mov    %eax,0x4(%esp)
  8027fa:	8b 45 f0             	mov    -0x10(%ebp),%eax
{
	int r;
	struct Dev *dev;
	struct Fd *fd;

	if ((r = fd_lookup(fdnum, &fd, true)) < 0
  8027fd:	8b 00                	mov    (%eax),%eax
  8027ff:	89 04 24             	mov    %eax,(%esp)
  802802:	e8 2b fd ff ff       	call   802532 <_Z10dev_lookupiPP3Dev>
  802807:	85 c0                	test   %eax,%eax
  802809:	79 4d                	jns    802858 <_Z4readiPvj+0x8a>
  80280b:	eb 45                	jmp    802852 <_Z4readiPvj+0x84>
	    || (r = dev_lookup(fd->fd_dev_id, &dev)) < 0)
		return r;
	if ((fd->fd_omode & O_ACCMODE) == O_WRONLY) {
		cprintf("[%08x] read %d -- bad mode\n", thisenv->env_id, fdnum);
  80280d:	a1 00 70 80 00       	mov    0x807000,%eax
  802812:	8b 40 04             	mov    0x4(%eax),%eax
  802815:	89 5c 24 08          	mov    %ebx,0x8(%esp)
  802819:	89 44 24 04          	mov    %eax,0x4(%esp)
  80281d:	c7 04 24 c7 55 80 00 	movl   $0x8055c7,(%esp)
  802824:	e8 05 df ff ff       	call   80072e <_Z7cprintfPKcz>
		return -E_INVAL;
  802829:	b8 fd ff ff ff       	mov    $0xfffffffd,%eax
  80282e:	eb 22                	jmp    802852 <_Z4readiPvj+0x84>
	}
	if (!dev->dev_read)
  802830:	8b 45 f4             	mov    -0xc(%ebp),%eax
  802833:	8b 50 08             	mov    0x8(%eax),%edx
		return -E_NOT_SUPP;
  802836:	b8 f1 ff ff ff       	mov    $0xfffffff1,%eax
		return r;
	if ((fd->fd_omode & O_ACCMODE) == O_WRONLY) {
		cprintf("[%08x] read %d -- bad mode\n", thisenv->env_id, fdnum);
		return -E_INVAL;
	}
	if (!dev->dev_read)
  80283b:	85 d2                	test   %edx,%edx
  80283d:	74 13                	je     802852 <_Z4readiPvj+0x84>
		return -E_NOT_SUPP;
	return (*dev->dev_read)(fd, buf, n);
  80283f:	8b 45 10             	mov    0x10(%ebp),%eax
  802842:	89 44 24 08          	mov    %eax,0x8(%esp)
  802846:	8b 45 0c             	mov    0xc(%ebp),%eax
  802849:	89 44 24 04          	mov    %eax,0x4(%esp)
  80284d:	89 0c 24             	mov    %ecx,(%esp)
  802850:	ff d2                	call   *%edx
}
  802852:	83 c4 24             	add    $0x24,%esp
  802855:	5b                   	pop    %ebx
  802856:	5d                   	pop    %ebp
  802857:	c3                   	ret    
	struct Fd *fd;

	if ((r = fd_lookup(fdnum, &fd, true)) < 0
	    || (r = dev_lookup(fd->fd_dev_id, &dev)) < 0)
		return r;
	if ((fd->fd_omode & O_ACCMODE) == O_WRONLY) {
  802858:	8b 4d f0             	mov    -0x10(%ebp),%ecx
  80285b:	8b 41 08             	mov    0x8(%ecx),%eax
  80285e:	83 e0 03             	and    $0x3,%eax
  802861:	83 f8 01             	cmp    $0x1,%eax
  802864:	75 ca                	jne    802830 <_Z4readiPvj+0x62>
  802866:	eb a5                	jmp    80280d <_Z4readiPvj+0x3f>

00802868 <_Z5readniPvj>:
	return (*dev->dev_read)(fd, buf, n);
}

ssize_t
readn(int fdnum, void *buf, size_t n)
{
  802868:	55                   	push   %ebp
  802869:	89 e5                	mov    %esp,%ebp
  80286b:	57                   	push   %edi
  80286c:	56                   	push   %esi
  80286d:	53                   	push   %ebx
  80286e:	83 ec 1c             	sub    $0x1c,%esp
  802871:	8b 7d 0c             	mov    0xc(%ebp),%edi
  802874:	8b 75 10             	mov    0x10(%ebp),%esi
	int m;
	size_t tot;

	for (tot = 0; tot < n; tot += m) {
  802877:	85 f6                	test   %esi,%esi
  802879:	74 2f                	je     8028aa <_Z5readniPvj+0x42>
  80287b:	bb 00 00 00 00       	mov    $0x0,%ebx
		m = read(fdnum, (char*)buf + tot, n - tot);
  802880:	89 f0                	mov    %esi,%eax
  802882:	29 d8                	sub    %ebx,%eax
  802884:	89 44 24 08          	mov    %eax,0x8(%esp)
  802888:	8d 04 1f             	lea    (%edi,%ebx,1),%eax
  80288b:	89 44 24 04          	mov    %eax,0x4(%esp)
  80288f:	8b 45 08             	mov    0x8(%ebp),%eax
  802892:	89 04 24             	mov    %eax,(%esp)
  802895:	e8 34 ff ff ff       	call   8027ce <_Z4readiPvj>
		if (m < 0)
  80289a:	85 c0                	test   %eax,%eax
  80289c:	78 13                	js     8028b1 <_Z5readniPvj+0x49>
			return m;
		if (m == 0)
  80289e:	85 c0                	test   %eax,%eax
  8028a0:	74 0d                	je     8028af <_Z5readniPvj+0x47>
readn(int fdnum, void *buf, size_t n)
{
	int m;
	size_t tot;

	for (tot = 0; tot < n; tot += m) {
  8028a2:	01 c3                	add    %eax,%ebx
  8028a4:	39 de                	cmp    %ebx,%esi
  8028a6:	77 d8                	ja     802880 <_Z5readniPvj+0x18>
  8028a8:	eb 05                	jmp    8028af <_Z5readniPvj+0x47>
  8028aa:	bb 00 00 00 00       	mov    $0x0,%ebx
		if (m < 0)
			return m;
		if (m == 0)
			break;
	}
	return tot;
  8028af:	89 d8                	mov    %ebx,%eax
}
  8028b1:	83 c4 1c             	add    $0x1c,%esp
  8028b4:	5b                   	pop    %ebx
  8028b5:	5e                   	pop    %esi
  8028b6:	5f                   	pop    %edi
  8028b7:	5d                   	pop    %ebp
  8028b8:	c3                   	ret    

008028b9 <_Z5writeiPKvj>:

ssize_t
write(int fdnum, const void *buf, size_t n)
{
  8028b9:	55                   	push   %ebp
  8028ba:	89 e5                	mov    %esp,%ebp
  8028bc:	83 ec 28             	sub    $0x28,%esp
	int r;
	struct Dev *dev;
	struct Fd *fd;

	if ((r = fd_lookup(fdnum, &fd, true)) < 0
  8028bf:	c7 44 24 08 01 00 00 	movl   $0x1,0x8(%esp)
  8028c6:	00 
  8028c7:	8d 45 f0             	lea    -0x10(%ebp),%eax
  8028ca:	89 44 24 04          	mov    %eax,0x4(%esp)
  8028ce:	8b 45 08             	mov    0x8(%ebp),%eax
  8028d1:	89 04 24             	mov    %eax,(%esp)
  8028d4:	e8 48 fb ff ff       	call   802421 <_Z9fd_lookupiPP2Fdb>
  8028d9:	85 c0                	test   %eax,%eax
  8028db:	78 3c                	js     802919 <_Z5writeiPKvj+0x60>
	    || (r = dev_lookup(fd->fd_dev_id, &dev)) < 0)
  8028dd:	8d 45 f4             	lea    -0xc(%ebp),%eax
  8028e0:	89 44 24 04          	mov    %eax,0x4(%esp)
  8028e4:	8b 45 f0             	mov    -0x10(%ebp),%eax
{
	int r;
	struct Dev *dev;
	struct Fd *fd;

	if ((r = fd_lookup(fdnum, &fd, true)) < 0
  8028e7:	8b 00                	mov    (%eax),%eax
  8028e9:	89 04 24             	mov    %eax,(%esp)
  8028ec:	e8 41 fc ff ff       	call   802532 <_Z10dev_lookupiPP3Dev>
  8028f1:	85 c0                	test   %eax,%eax
  8028f3:	79 26                	jns    80291b <_Z5writeiPKvj+0x62>
  8028f5:	eb 22                	jmp    802919 <_Z5writeiPKvj+0x60>
	    || (r = dev_lookup(fd->fd_dev_id, &dev)) < 0)
		return r;
	if ((fd->fd_omode & O_ACCMODE) == O_RDONLY)
		return -E_INVAL;
	if (!dev->dev_write)
  8028f7:	8b 45 f4             	mov    -0xc(%ebp),%eax
  8028fa:	8b 48 0c             	mov    0xc(%eax),%ecx
		return -E_NOT_SUPP;
  8028fd:	b8 f1 ff ff ff       	mov    $0xfffffff1,%eax
	if ((r = fd_lookup(fdnum, &fd, true)) < 0
	    || (r = dev_lookup(fd->fd_dev_id, &dev)) < 0)
		return r;
	if ((fd->fd_omode & O_ACCMODE) == O_RDONLY)
		return -E_INVAL;
	if (!dev->dev_write)
  802902:	85 c9                	test   %ecx,%ecx
  802904:	74 13                	je     802919 <_Z5writeiPKvj+0x60>
		return -E_NOT_SUPP;
	return (*dev->dev_write)(fd, buf, n);
  802906:	8b 45 10             	mov    0x10(%ebp),%eax
  802909:	89 44 24 08          	mov    %eax,0x8(%esp)
  80290d:	8b 45 0c             	mov    0xc(%ebp),%eax
  802910:	89 44 24 04          	mov    %eax,0x4(%esp)
  802914:	89 14 24             	mov    %edx,(%esp)
  802917:	ff d1                	call   *%ecx
}
  802919:	c9                   	leave  
  80291a:	c3                   	ret    
	struct Fd *fd;

	if ((r = fd_lookup(fdnum, &fd, true)) < 0
	    || (r = dev_lookup(fd->fd_dev_id, &dev)) < 0)
		return r;
	if ((fd->fd_omode & O_ACCMODE) == O_RDONLY)
  80291b:	8b 55 f0             	mov    -0x10(%ebp),%edx
		return -E_INVAL;
  80291e:	b8 fd ff ff ff       	mov    $0xfffffffd,%eax
	struct Fd *fd;

	if ((r = fd_lookup(fdnum, &fd, true)) < 0
	    || (r = dev_lookup(fd->fd_dev_id, &dev)) < 0)
		return r;
	if ((fd->fd_omode & O_ACCMODE) == O_RDONLY)
  802923:	f6 42 08 03          	testb  $0x3,0x8(%edx)
  802927:	74 f0                	je     802919 <_Z5writeiPKvj+0x60>
  802929:	eb cc                	jmp    8028f7 <_Z5writeiPKvj+0x3e>

0080292b <_Z4seekii>:
	return (*dev->dev_write)(fd, buf, n);
}

int
seek(int fdnum, off_t offset)
{
  80292b:	55                   	push   %ebp
  80292c:	89 e5                	mov    %esp,%ebp
  80292e:	83 ec 28             	sub    $0x28,%esp
	int r;
	struct Fd *fd;

	if ((r = fd_lookup(fdnum, &fd, true)) < 0)
  802931:	c7 44 24 08 01 00 00 	movl   $0x1,0x8(%esp)
  802938:	00 
  802939:	8d 45 f4             	lea    -0xc(%ebp),%eax
  80293c:	89 44 24 04          	mov    %eax,0x4(%esp)
  802940:	8b 45 08             	mov    0x8(%ebp),%eax
  802943:	89 04 24             	mov    %eax,(%esp)
  802946:	e8 d6 fa ff ff       	call   802421 <_Z9fd_lookupiPP2Fdb>
  80294b:	85 c0                	test   %eax,%eax
  80294d:	78 0e                	js     80295d <_Z4seekii+0x32>
		return r;
	fd->fd_offset = offset;
  80294f:	8b 45 f4             	mov    -0xc(%ebp),%eax
  802952:	8b 55 0c             	mov    0xc(%ebp),%edx
  802955:	89 50 04             	mov    %edx,0x4(%eax)
	return 0;
  802958:	b8 00 00 00 00       	mov    $0x0,%eax
}
  80295d:	c9                   	leave  
  80295e:	c3                   	ret    

0080295f <_Z9ftruncateii>:

int
ftruncate(int fdnum, off_t newsize)
{
  80295f:	55                   	push   %ebp
  802960:	89 e5                	mov    %esp,%ebp
  802962:	53                   	push   %ebx
  802963:	83 ec 24             	sub    $0x24,%esp
  802966:	8b 5d 08             	mov    0x8(%ebp),%ebx
	int r;
	struct Dev *dev;
	struct Fd *fd;

	if ((r = fd_lookup(fdnum, &fd, true)) < 0
  802969:	c7 44 24 08 01 00 00 	movl   $0x1,0x8(%esp)
  802970:	00 
  802971:	8d 45 f0             	lea    -0x10(%ebp),%eax
  802974:	89 44 24 04          	mov    %eax,0x4(%esp)
  802978:	89 1c 24             	mov    %ebx,(%esp)
  80297b:	e8 a1 fa ff ff       	call   802421 <_Z9fd_lookupiPP2Fdb>
  802980:	85 c0                	test   %eax,%eax
  802982:	78 58                	js     8029dc <_Z9ftruncateii+0x7d>
	    || (r = dev_lookup(fd->fd_dev_id, &dev)) < 0)
  802984:	8d 45 f4             	lea    -0xc(%ebp),%eax
  802987:	89 44 24 04          	mov    %eax,0x4(%esp)
  80298b:	8b 45 f0             	mov    -0x10(%ebp),%eax
{
	int r;
	struct Dev *dev;
	struct Fd *fd;

	if ((r = fd_lookup(fdnum, &fd, true)) < 0
  80298e:	8b 00                	mov    (%eax),%eax
  802990:	89 04 24             	mov    %eax,(%esp)
  802993:	e8 9a fb ff ff       	call   802532 <_Z10dev_lookupiPP3Dev>
  802998:	85 c0                	test   %eax,%eax
  80299a:	79 46                	jns    8029e2 <_Z9ftruncateii+0x83>
  80299c:	eb 3e                	jmp    8029dc <_Z9ftruncateii+0x7d>
	    || (r = dev_lookup(fd->fd_dev_id, &dev)) < 0)
		return r;
	if ((fd->fd_omode & O_ACCMODE) == O_RDONLY) {
		cprintf("[%08x] ftruncate %d -- bad mode\n", thisenv->env_id, fdnum);
  80299e:	a1 00 70 80 00       	mov    0x807000,%eax
  8029a3:	8b 40 04             	mov    0x4(%eax),%eax
  8029a6:	89 5c 24 08          	mov    %ebx,0x8(%esp)
  8029aa:	89 44 24 04          	mov    %eax,0x4(%esp)
  8029ae:	c7 04 24 04 56 80 00 	movl   $0x805604,(%esp)
  8029b5:	e8 74 dd ff ff       	call   80072e <_Z7cprintfPKcz>
		return -E_INVAL;
  8029ba:	b8 fd ff ff ff       	mov    $0xfffffffd,%eax
  8029bf:	eb 1b                	jmp    8029dc <_Z9ftruncateii+0x7d>
	}
	if (!dev->dev_trunc)
  8029c1:	8b 45 f4             	mov    -0xc(%ebp),%eax
  8029c4:	8b 50 18             	mov    0x18(%eax),%edx
		return -E_NOT_SUPP;
  8029c7:	b8 f1 ff ff ff       	mov    $0xfffffff1,%eax
		return r;
	if ((fd->fd_omode & O_ACCMODE) == O_RDONLY) {
		cprintf("[%08x] ftruncate %d -- bad mode\n", thisenv->env_id, fdnum);
		return -E_INVAL;
	}
	if (!dev->dev_trunc)
  8029cc:	85 d2                	test   %edx,%edx
  8029ce:	74 0c                	je     8029dc <_Z9ftruncateii+0x7d>
		return -E_NOT_SUPP;
	return (*dev->dev_trunc)(fd, newsize);
  8029d0:	8b 45 0c             	mov    0xc(%ebp),%eax
  8029d3:	89 44 24 04          	mov    %eax,0x4(%esp)
  8029d7:	89 0c 24             	mov    %ecx,(%esp)
  8029da:	ff d2                	call   *%edx
}
  8029dc:	83 c4 24             	add    $0x24,%esp
  8029df:	5b                   	pop    %ebx
  8029e0:	5d                   	pop    %ebp
  8029e1:	c3                   	ret    
	struct Fd *fd;

	if ((r = fd_lookup(fdnum, &fd, true)) < 0
	    || (r = dev_lookup(fd->fd_dev_id, &dev)) < 0)
		return r;
	if ((fd->fd_omode & O_ACCMODE) == O_RDONLY) {
  8029e2:	8b 4d f0             	mov    -0x10(%ebp),%ecx
  8029e5:	f6 41 08 03          	testb  $0x3,0x8(%ecx)
  8029e9:	75 d6                	jne    8029c1 <_Z9ftruncateii+0x62>
  8029eb:	eb b1                	jmp    80299e <_Z9ftruncateii+0x3f>

008029ed <_Z5fstatiP4Stat>:
	return (*dev->dev_trunc)(fd, newsize);
}

int
fstat(int fdnum, struct Stat *stat)
{
  8029ed:	55                   	push   %ebp
  8029ee:	89 e5                	mov    %esp,%ebp
  8029f0:	53                   	push   %ebx
  8029f1:	83 ec 24             	sub    $0x24,%esp
  8029f4:	8b 5d 0c             	mov    0xc(%ebp),%ebx
	int r;
	struct Dev *dev;
	struct Fd *fd;

	if ((r = fd_lookup(fdnum, &fd, true)) < 0
  8029f7:	c7 44 24 08 01 00 00 	movl   $0x1,0x8(%esp)
  8029fe:	00 
  8029ff:	8d 45 f0             	lea    -0x10(%ebp),%eax
  802a02:	89 44 24 04          	mov    %eax,0x4(%esp)
  802a06:	8b 45 08             	mov    0x8(%ebp),%eax
  802a09:	89 04 24             	mov    %eax,(%esp)
  802a0c:	e8 10 fa ff ff       	call   802421 <_Z9fd_lookupiPP2Fdb>
  802a11:	85 c0                	test   %eax,%eax
  802a13:	78 3e                	js     802a53 <_Z5fstatiP4Stat+0x66>
	    || (r = dev_lookup(fd->fd_dev_id, &dev)) < 0)
  802a15:	8d 45 f4             	lea    -0xc(%ebp),%eax
  802a18:	89 44 24 04          	mov    %eax,0x4(%esp)
  802a1c:	8b 45 f0             	mov    -0x10(%ebp),%eax
{
	int r;
	struct Dev *dev;
	struct Fd *fd;

	if ((r = fd_lookup(fdnum, &fd, true)) < 0
  802a1f:	8b 00                	mov    (%eax),%eax
  802a21:	89 04 24             	mov    %eax,(%esp)
  802a24:	e8 09 fb ff ff       	call   802532 <_Z10dev_lookupiPP3Dev>
  802a29:	85 c0                	test   %eax,%eax
  802a2b:	79 2c                	jns    802a59 <_Z5fstatiP4Stat+0x6c>
  802a2d:	eb 24                	jmp    802a53 <_Z5fstatiP4Stat+0x66>
	    || (r = dev_lookup(fd->fd_dev_id, &dev)) < 0)
		return r;
	if (!dev->dev_stat)
		return -E_NOT_SUPP;
	stat->st_name[0] = 0;
  802a2f:	c6 03 00             	movb   $0x0,(%ebx)
	stat->st_size = 0;
  802a32:	c7 43 78 00 00 00 00 	movl   $0x0,0x78(%ebx)
	stat->st_ftype = 0;
  802a39:	c7 43 7c 00 00 00 00 	movl   $0x0,0x7c(%ebx)
	stat->st_dev = dev;
  802a40:	89 93 80 00 00 00    	mov    %edx,0x80(%ebx)
	return (*dev->dev_stat)(fd, stat);
  802a46:	89 5c 24 04          	mov    %ebx,0x4(%esp)
  802a4a:	8b 45 f0             	mov    -0x10(%ebp),%eax
  802a4d:	89 04 24             	mov    %eax,(%esp)
  802a50:	ff 52 14             	call   *0x14(%edx)
}
  802a53:	83 c4 24             	add    $0x24,%esp
  802a56:	5b                   	pop    %ebx
  802a57:	5d                   	pop    %ebp
  802a58:	c3                   	ret    
	struct Fd *fd;

	if ((r = fd_lookup(fdnum, &fd, true)) < 0
	    || (r = dev_lookup(fd->fd_dev_id, &dev)) < 0)
		return r;
	if (!dev->dev_stat)
  802a59:	8b 55 f4             	mov    -0xc(%ebp),%edx
		return -E_NOT_SUPP;
  802a5c:	b8 f1 ff ff ff       	mov    $0xfffffff1,%eax
	struct Fd *fd;

	if ((r = fd_lookup(fdnum, &fd, true)) < 0
	    || (r = dev_lookup(fd->fd_dev_id, &dev)) < 0)
		return r;
	if (!dev->dev_stat)
  802a61:	83 7a 14 00          	cmpl   $0x0,0x14(%edx)
  802a65:	75 c8                	jne    802a2f <_Z5fstatiP4Stat+0x42>
  802a67:	eb ea                	jmp    802a53 <_Z5fstatiP4Stat+0x66>

00802a69 <_Z4statPKcP4Stat>:
	return (*dev->dev_stat)(fd, stat);
}

int
stat(const char *path, struct Stat *stat)
{
  802a69:	55                   	push   %ebp
  802a6a:	89 e5                	mov    %esp,%ebp
  802a6c:	83 ec 18             	sub    $0x18,%esp
  802a6f:	89 5d f8             	mov    %ebx,-0x8(%ebp)
  802a72:	89 75 fc             	mov    %esi,-0x4(%ebp)
	int fd, r;

	if ((fd = open(path, O_RDONLY)) < 0)
  802a75:	c7 44 24 04 00 00 00 	movl   $0x0,0x4(%esp)
  802a7c:	00 
  802a7d:	8b 45 08             	mov    0x8(%ebp),%eax
  802a80:	89 04 24             	mov    %eax,(%esp)
  802a83:	e8 d6 09 00 00       	call   80345e <_Z4openPKci>
  802a88:	89 c3                	mov    %eax,%ebx
  802a8a:	85 c0                	test   %eax,%eax
  802a8c:	78 1b                	js     802aa9 <_Z4statPKcP4Stat+0x40>
		return fd;
	r = fstat(fd, stat);
  802a8e:	8b 45 0c             	mov    0xc(%ebp),%eax
  802a91:	89 44 24 04          	mov    %eax,0x4(%esp)
  802a95:	89 1c 24             	mov    %ebx,(%esp)
  802a98:	e8 50 ff ff ff       	call   8029ed <_Z5fstatiP4Stat>
  802a9d:	89 c6                	mov    %eax,%esi
	close(fd);
  802a9f:	89 1c 24             	mov    %ebx,(%esp)
  802aa2:	e8 7e fb ff ff       	call   802625 <_Z5closei>
	return r;
  802aa7:	89 f3                	mov    %esi,%ebx
}
  802aa9:	89 d8                	mov    %ebx,%eax
  802aab:	8b 5d f8             	mov    -0x8(%ebp),%ebx
  802aae:	8b 75 fc             	mov    -0x4(%ebp),%esi
  802ab1:	89 ec                	mov    %ebp,%esp
  802ab3:	5d                   	pop    %ebp
  802ab4:	c3                   	ret    
	...

00802ac0 <_ZL10inode_dataP5Inodei>:
// in the file 'ino'.
// Returns NULL if 'off' is out of range for the file.
//
static void *
inode_data(struct Inode *ino, off_t off)
{
  802ac0:	55                   	push   %ebp
  802ac1:	89 e5                	mov    %esp,%ebp
	blocknum_t blocknum;
	if (off < 0 || off >= ino->i_size)
		return 0;
  802ac3:	b9 00 00 00 00       	mov    $0x0,%ecx
//
static void *
inode_data(struct Inode *ino, off_t off)
{
	blocknum_t blocknum;
	if (off < 0 || off >= ino->i_size)
  802ac8:	85 d2                	test   %edx,%edx
  802aca:	78 33                	js     802aff <_ZL10inode_dataP5Inodei+0x3f>
  802acc:	3b 50 08             	cmp    0x8(%eax),%edx
  802acf:	7d 2e                	jge    802aff <_ZL10inode_dataP5Inodei+0x3f>
		return 0;
	blocknum = ino->i_direct[off / PGSIZE];
  802ad1:	8d 8a ff 0f 00 00    	lea    0xfff(%edx),%ecx
  802ad7:	85 d2                	test   %edx,%edx
  802ad9:	0f 49 ca             	cmovns %edx,%ecx
  802adc:	c1 f9 0c             	sar    $0xc,%ecx
	return (void *) (FSMAP + blocknum * BLKSIZE + off % PGSIZE);
  802adf:	8b 4c 88 0c          	mov    0xc(%eax,%ecx,4),%ecx
  802ae3:	c1 e1 0c             	shl    $0xc,%ecx
  802ae6:	89 d0                	mov    %edx,%eax
  802ae8:	c1 f8 1f             	sar    $0x1f,%eax
  802aeb:	c1 e8 14             	shr    $0x14,%eax
  802aee:	01 c2                	add    %eax,%edx
  802af0:	81 e2 ff 0f 00 00    	and    $0xfff,%edx
  802af6:	29 c2                	sub    %eax,%edx
  802af8:	8d 8c 11 00 00 00 50 	lea    0x50000000(%ecx,%edx,1),%ecx
}
  802aff:	89 c8                	mov    %ecx,%eax
  802b01:	5d                   	pop    %ebp
  802b02:	c3                   	ret    

00802b03 <_ZL9stat_basePK5InodeP4Stat>:
    return fd->fd_offset - orig_offset;
}

static void
stat_base(const struct Inode *ino, struct Stat *stat)
{
  802b03:	55                   	push   %ebp
  802b04:	89 e5                	mov    %esp,%ebp
	stat->st_size = ino->i_size;
  802b06:	8b 48 08             	mov    0x8(%eax),%ecx
  802b09:	89 4a 78             	mov    %ecx,0x78(%edx)
	stat->st_ftype = ino->i_ftype;
  802b0c:	8b 00                	mov    (%eax),%eax
  802b0e:	89 42 7c             	mov    %eax,0x7c(%edx)
	stat->st_dev = &devfile;
  802b11:	c7 82 80 00 00 00 20 	movl   $0x806020,0x80(%edx)
  802b18:	60 80 00 
}
  802b1b:	5d                   	pop    %ebp
  802b1c:	c3                   	ret    

00802b1d <_ZL9get_inodei>:
// Return a pointer to inode number 'inum'.
// The inode might not be in memory right now (it should be demand paged).
//
static struct Inode *
get_inode(int inum)
{
  802b1d:	55                   	push   %ebp
  802b1e:	89 e5                	mov    %esp,%ebp
  802b20:	83 ec 18             	sub    $0x18,%esp
	blocknum_t b = 1 + ROUNDUP(super->s_nblocks, PGSIZE) / PGSIZE + inum;
  802b23:	8b 15 04 10 00 50    	mov    0x50001004,%edx
	if (inum == 0 || inum > super->s_ninodes)
  802b29:	85 c0                	test   %eax,%eax
  802b2b:	74 08                	je     802b35 <_ZL9get_inodei+0x18>
  802b2d:	3b 05 08 10 00 50    	cmp    0x50001008,%eax
  802b33:	7e 20                	jle    802b55 <_ZL9get_inodei+0x38>
		panic("inode %d out of range", inum);
  802b35:	89 44 24 0c          	mov    %eax,0xc(%esp)
  802b39:	c7 44 24 08 3c 56 80 	movl   $0x80563c,0x8(%esp)
  802b40:	00 
  802b41:	c7 44 24 04 47 00 00 	movl   $0x47,0x4(%esp)
  802b48:	00 
  802b49:	c7 04 24 52 56 80 00 	movl   $0x805652,(%esp)
  802b50:	e8 bb da ff ff       	call   800610 <_Z6_panicPKciS0_z>
// The inode might not be in memory right now (it should be demand paged).
//
static struct Inode *
get_inode(int inum)
{
	blocknum_t b = 1 + ROUNDUP(super->s_nblocks, PGSIZE) / PGSIZE + inum;
  802b55:	81 c2 ff 0f 00 00    	add    $0xfff,%edx
  802b5b:	81 e2 00 f0 ff ff    	and    $0xfffff000,%edx
  802b61:	8d 8a ff 0f 00 00    	lea    0xfff(%edx),%ecx
  802b67:	85 d2                	test   %edx,%edx
  802b69:	0f 48 d1             	cmovs  %ecx,%edx
  802b6c:	c1 fa 0c             	sar    $0xc,%edx
	if (inum == 0 || inum > super->s_ninodes)
		panic("inode %d out of range", inum);
	return (struct Inode *) (FSMAP + b * BLKSIZE);
  802b6f:	8d 84 10 01 00 05 00 	lea    0x50001(%eax,%edx,1),%eax
  802b76:	c1 e0 0c             	shl    $0xc,%eax
}
  802b79:	c9                   	leave  
  802b7a:	c3                   	ret    

00802b7b <_ZL10bcache_ipcPvi>:
// for the file system block containing 'addr'.
// Returns 0 on success, < 0 on error.
//
static int
bcache_ipc(void *addr, int reqtype)
{
  802b7b:	55                   	push   %ebp
  802b7c:	89 e5                	mov    %esp,%ebp
  802b7e:	56                   	push   %esi
  802b7f:	53                   	push   %ebx
  802b80:	83 ec 10             	sub    $0x10,%esp
	int r;
	blocknum_t b = ((uintptr_t) addr - FSMAP) / BLKSIZE;
  802b83:	8d b0 00 00 00 b0    	lea    -0x50000000(%eax),%esi
  802b89:	c1 ee 0c             	shr    $0xc,%esi
	if (b < 0 || b > (blocknum_t) (DISKSIZE / BLKSIZE))
  802b8c:	81 fe 00 00 08 00    	cmp    $0x80000,%esi
  802b92:	76 20                	jbe    802bb4 <_ZL10bcache_ipcPvi+0x39>
		panic("bcache_ipc: va %08x out of disk address range", addr);
  802b94:	89 44 24 0c          	mov    %eax,0xc(%esp)
  802b98:	c7 44 24 08 78 56 80 	movl   $0x805678,0x8(%esp)
  802b9f:	00 
  802ba0:	c7 44 24 04 1f 00 00 	movl   $0x1f,0x4(%esp)
  802ba7:	00 
  802ba8:	c7 04 24 52 56 80 00 	movl   $0x805652,(%esp)
  802baf:	e8 5c da ff ff       	call   800610 <_Z6_panicPKciS0_z>
	// Be careful: check 'super' might not be loaded!
	if (b >= 2 && b >= super->s_nblocks)
  802bb4:	83 fe 01             	cmp    $0x1,%esi
  802bb7:	7e 08                	jle    802bc1 <_ZL10bcache_ipcPvi+0x46>
  802bb9:	3b 35 04 10 00 50    	cmp    0x50001004,%esi
  802bbf:	7d 12                	jge    802bd3 <_ZL10bcache_ipcPvi+0x58>
		panic("bcache_ipc: block %d out of file system bounds", b);

	do {
		ipc_send(ENVID_BUFCACHE, MAKE_BCREQ(b, reqtype), 0, 0);
  802bc1:	89 f3                	mov    %esi,%ebx
  802bc3:	c1 e3 04             	shl    $0x4,%ebx
  802bc6:	09 d3                	or     %edx,%ebx
		r = ipc_recv(0, (void *) (FSMAP + b * PGSIZE), 0);
  802bc8:	81 c6 00 00 05 00    	add    $0x50000,%esi
  802bce:	c1 e6 0c             	shl    $0xc,%esi
  802bd1:	eb 20                	jmp    802bf3 <_ZL10bcache_ipcPvi+0x78>
	blocknum_t b = ((uintptr_t) addr - FSMAP) / BLKSIZE;
	if (b < 0 || b > (blocknum_t) (DISKSIZE / BLKSIZE))
		panic("bcache_ipc: va %08x out of disk address range", addr);
	// Be careful: check 'super' might not be loaded!
	if (b >= 2 && b >= super->s_nblocks)
		panic("bcache_ipc: block %d out of file system bounds", b);
  802bd3:	89 74 24 0c          	mov    %esi,0xc(%esp)
  802bd7:	c7 44 24 08 a8 56 80 	movl   $0x8056a8,0x8(%esp)
  802bde:	00 
  802bdf:	c7 44 24 04 22 00 00 	movl   $0x22,0x4(%esp)
  802be6:	00 
  802be7:	c7 04 24 52 56 80 00 	movl   $0x805652,(%esp)
  802bee:	e8 1d da ff ff       	call   800610 <_Z6_panicPKciS0_z>

	do {
		ipc_send(ENVID_BUFCACHE, MAKE_BCREQ(b, reqtype), 0, 0);
  802bf3:	c7 44 24 0c 00 00 00 	movl   $0x0,0xc(%esp)
  802bfa:	00 
  802bfb:	c7 44 24 08 00 00 00 	movl   $0x0,0x8(%esp)
  802c02:	00 
  802c03:	89 5c 24 04          	mov    %ebx,0x4(%esp)
  802c07:	c7 04 24 00 11 00 00 	movl   $0x1100,(%esp)
  802c0e:	e8 8c 20 00 00       	call   804c9f <_Z8ipc_sendijPvi>
		r = ipc_recv(0, (void *) (FSMAP + b * PGSIZE), 0);
  802c13:	c7 44 24 08 00 00 00 	movl   $0x0,0x8(%esp)
  802c1a:	00 
  802c1b:	89 74 24 04          	mov    %esi,0x4(%esp)
